

Microchip MPLAB XC8 Assembler V2.46 build 20240104201356 
                                                                                               Wed Oct 09 08:18:10 2024

Microchip MPLAB XC8 C Compiler v2.46 (Free license) build 20240104201356 Og1 
     1                           	processor	16F1783
     2                           	pagewidth 120
     3                           	opt	flic
     4                           	psect	stringtext1,global,class=STRCODE,delta=2,noexec
     5                           	psect	stringtext2,global,class=STRCODE,delta=2,noexec
     6                           	psect	stringtext3,global,class=STRCODE,delta=2,noexec
     7                           	psect	stringtext4,global,class=STRCODE,delta=2,noexec
     8                           	psect	stringtext5,global,class=STRCODE,delta=2,noexec
     9                           	psect	stringtext6,global,class=STRCODE,delta=2,noexec
    10                           	psect	stringtext7,global,class=STRCODE,delta=2,noexec
    11                           	psect	stringtext8,global,class=STRCODE,delta=2,noexec
    12                           	psect	stringtext9,global,class=STRCODE,delta=2,noexec
    13                           	psect	stringtext10,global,class=STRCODE,delta=2,noexec
    14                           	psect	cinit,global,class=CODE,merge=1,delta=2
    15                           	psect	bssBANK0,global,class=BANK0,space=1,delta=1,noexec
    16                           	psect	cstackCOMMON,global,class=COMMON,space=1,delta=1,noexec
    17                           	psect	cstackBANK0,global,class=BANK0,space=1,delta=1,noexec
    18                           	psect	maintext,global,class=CODE,merge=1,split=1,delta=2
    19                           	psect	text1,local,class=CODE,merge=1,delta=2
    20                           	psect	text2,local,class=CODE,merge=1,delta=2
    21                           	psect	text3,local,class=CODE,merge=1,delta=2
    22                           	psect	text4,local,class=CODE,merge=1,delta=2
    23                           	psect	text5,local,class=CODE,merge=1,delta=2
    24                           	psect	text6,local,class=CODE,merge=1,delta=2
    25                           	psect	text7,local,class=CODE,merge=1,delta=2
    26                           	psect	text8,local,class=CODE,merge=1,delta=2
    27                           	psect	text9,local,class=CODE,merge=1,delta=2
    28                           	psect	text10,local,class=CODE,merge=1,delta=2
    29                           	psect	text11,local,class=CODE,merge=1,delta=2
    30                           	psect	text12,local,class=CODE,merge=1,delta=2
    31                           	psect	text13,local,class=CODE,merge=1,delta=2,group=2
    32                           	psect	text14,local,class=CODE,merge=1,delta=2
    33                           	psect	text15,local,class=CODE,merge=1,delta=2
    34                           	psect	text16,local,class=CODE,merge=1,delta=2,group=2
    35                           	psect	text17,local,class=CODE,merge=1,delta=2,group=1
    36                           	psect	text18,local,class=CODE,merge=1,delta=2,group=1
    37                           	psect	text19,local,class=CODE,merge=1,delta=2
    38                           	psect	text20,local,class=CODE,merge=1,delta=2
    39                           	psect	text21,local,class=CODE,merge=1,delta=2
    40                           	psect	text22,local,class=CODE,merge=1,delta=2
    41                           	psect	text23,local,class=CODE,merge=1,delta=2
    42                           	psect	text24,local,class=CODE,merge=1,delta=2
    43                           	psect	text25,local,class=CODE,merge=1,delta=2
    44                           	psect	text26,local,class=CODE,merge=1,delta=2
    45                           	psect	text27,local,class=CODE,merge=1,delta=2
    46                           	psect	text28,local,class=CODE,merge=1,delta=2
    47                           	psect	text29,local,class=CODE,merge=1,delta=2
    48                           	psect	text30,local,class=CODE,merge=1,delta=2,group=1
    49                           	psect	config,global,abs,ovrld,class=CONFIG,space=4,delta=2,noexec
    50                           	dabs	1,0x7E,2
    51     0000                     
    52                           ; Generated 07/09/2023 GMT
    53                           ; 
    54                           ; Copyright © 2023, Microchip Technology Inc. and its subsidiaries ("Microchip")
    55                           ; All rights reserved.
    56                           ; 
    57                           ; This software is developed by Microchip Technology Inc. and its subsidiaries ("Microch
      +                          ip").
    58                           ; 
    59                           ; Redistribution and use in source and binary forms, with or without modification, are
    60                           ; permitted provided that the following conditions are met:
    61                           ; 
    62                           ;     1. Redistributions of source code must retain the above copyright notice, this lis
      +                          t of
    63                           ;        conditions and the following disclaimer.
    64                           ; 
    65                           ;     2. Redistributions in binary form must reproduce the above copyright notice, this 
      +                          list
    66                           ;        of conditions and the following disclaimer in the documentation and/or other
    67                           ;        materials provided with the distribution. Publication is not required when
    68                           ;        this file is used in an embedded application.
    69                           ; 
    70                           ;     3. Microchip's name may not be used to endorse or promote products derived from th
      +                          is
    71                           ;        software without specific prior written permission.
    72                           ; 
    73                           ; THIS SOFTWARE IS PROVIDED BY MICROCHIP "AS IS" AND ANY EXPRESS OR IMPLIED WARRANTIES,
    74                           ; INCLUDING, BUT NOT LIMITED TO, THE IMPLIED WARRANTIES OF MERCHANTABILITY AND FITNESS F
      +                          OR
    75                           ; PURPOSE ARE DISCLAIMED.  IN NO EVENT SHALL MICROCHIP BE LIABLE FOR ANY DIRECT, INDIREC
      +                          T,
    76                           ; INCIDENTAL, SPECIAL, EXEMPLARY, OR CONSEQUENTIAL DAMAGES (INCLUDING BUT NOT LIMITED TO
    77                           ; PROCUREMENT OF SUBSTITUTE GOODS OR SERVICES; LOSS OF USE, DATA OR PROFITS; OR BUSINESS
    78                           ; INTERRUPTION) HOWSOEVER CAUSED AND ON ANY THEORY OF LIABILITY, WHETHER IN CONTRACT, ST
      +                          RICT
    79                           ; LIABILITY, OR TORT (INCLUDING NEGLIGENCE OR OTHERWISE) ARISING IN ANY WAY OUT OF THE U
      +                          SE OF
    80                           ; THIS SOFTWARE, EVEN IF ADVISED OF THE POSSIBILITY OF SUCH DAMAGE.
    81                           ; 
    82                           ; 
    83                           ; Code-generator required, PIC16F1783 Definitions
    84                           ; 
    85                           ; SFR Addresses
    86     0000                     	;# 
    87     0001                     	;# 
    88     0002                     	;# 
    89     0003                     	;# 
    90     0004                     	;# 
    91     0005                     	;# 
    92     0006                     	;# 
    93     0007                     	;# 
    94     0008                     	;# 
    95     0009                     	;# 
    96     000A                     	;# 
    97     000B                     	;# 
    98     000C                     	;# 
    99     000D                     	;# 
   100     000E                     	;# 
   101     0010                     	;# 
   102     0011                     	;# 
   103     0012                     	;# 
   104     0014                     	;# 
   105     0015                     	;# 
   106     0016                     	;# 
   107     0016                     	;# 
   108     0017                     	;# 
   109     0018                     	;# 
   110     0019                     	;# 
   111     001A                     	;# 
   112     001B                     	;# 
   113     001C                     	;# 
   114     008C                     	;# 
   115     008D                     	;# 
   116     008E                     	;# 
   117     0090                     	;# 
   118     0091                     	;# 
   119     0092                     	;# 
   120     0094                     	;# 
   121     0095                     	;# 
   122     0096                     	;# 
   123     0097                     	;# 
   124     0098                     	;# 
   125     0099                     	;# 
   126     009A                     	;# 
   127     009B                     	;# 
   128     009B                     	;# 
   129     009C                     	;# 
   130     009D                     	;# 
   131     009E                     	;# 
   132     009F                     	;# 
   133     010C                     	;# 
   134     010D                     	;# 
   135     010E                     	;# 
   136     0111                     	;# 
   137     0112                     	;# 
   138     0113                     	;# 
   139     0114                     	;# 
   140     0115                     	;# 
   141     0116                     	;# 
   142     0117                     	;# 
   143     0118                     	;# 
   144     0119                     	;# 
   145     011D                     	;# 
   146     011D                     	;# 
   147     011E                     	;# 
   148     011F                     	;# 
   149     018C                     	;# 
   150     018D                     	;# 
   151     0191                     	;# 
   152     0191                     	;# 
   153     0192                     	;# 
   154     0193                     	;# 
   155     0193                     	;# 
   156     0193                     	;# 
   157     0194                     	;# 
   158     0195                     	;# 
   159     0196                     	;# 
   160     0197                     	;# 
   161     0199                     	;# 
   162     0199                     	;# 
   163     0199                     	;# 
   164     019A                     	;# 
   165     019A                     	;# 
   166     019A                     	;# 
   167     019B                     	;# 
   168     019B                     	;# 
   169     019B                     	;# 
   170     019B                     	;# 
   171     019B                     	;# 
   172     019C                     	;# 
   173     019C                     	;# 
   174     019C                     	;# 
   175     019D                     	;# 
   176     019D                     	;# 
   177     019D                     	;# 
   178     019E                     	;# 
   179     019E                     	;# 
   180     019E                     	;# 
   181     019F                     	;# 
   182     019F                     	;# 
   183     019F                     	;# 
   184     019F                     	;# 
   185     019F                     	;# 
   186     020C                     	;# 
   187     020D                     	;# 
   188     020E                     	;# 
   189     0210                     	;# 
   190     0211                     	;# 
   191     0211                     	;# 
   192     0212                     	;# 
   193     0212                     	;# 
   194     0213                     	;# 
   195     0213                     	;# 
   196     0214                     	;# 
   197     0214                     	;# 
   198     0215                     	;# 
   199     0215                     	;# 
   200     0215                     	;# 
   201     0216                     	;# 
   202     0216                     	;# 
   203     0217                     	;# 
   204     0217                     	;# 
   205     028C                     	;# 
   206     028D                     	;# 
   207     028E                     	;# 
   208     0291                     	;# 
   209     0291                     	;# 
   210     0292                     	;# 
   211     0293                     	;# 
   212     0298                     	;# 
   213     0298                     	;# 
   214     0299                     	;# 
   215     029A                     	;# 
   216     030C                     	;# 
   217     030D                     	;# 
   218     030E                     	;# 
   219     038C                     	;# 
   220     038D                     	;# 
   221     038E                     	;# 
   222     0390                     	;# 
   223     0391                     	;# 
   224     0392                     	;# 
   225     0393                     	;# 
   226     0394                     	;# 
   227     0395                     	;# 
   228     0396                     	;# 
   229     0397                     	;# 
   230     0398                     	;# 
   231     0399                     	;# 
   232     039D                     	;# 
   233     039E                     	;# 
   234     039F                     	;# 
   235     0511                     	;# 
   236     0513                     	;# 
   237     051A                     	;# 
   238     0811                     	;# 
   239     0812                     	;# 
   240     0813                     	;# 
   241     0814                     	;# 
   242     0815                     	;# 
   243     0816                     	;# 
   244     0817                     	;# 
   245     0818                     	;# 
   246     0819                     	;# 
   247     081A                     	;# 
   248     081B                     	;# 
   249     081C                     	;# 
   250     081D                     	;# 
   251     081E                     	;# 
   252     081F                     	;# 
   253     0820                     	;# 
   254     0821                     	;# 
   255     0821                     	;# 
   256     0822                     	;# 
   257     0823                     	;# 
   258     0823                     	;# 
   259     0824                     	;# 
   260     0825                     	;# 
   261     0825                     	;# 
   262     0826                     	;# 
   263     0827                     	;# 
   264     0827                     	;# 
   265     0828                     	;# 
   266     0829                     	;# 
   267     082A                     	;# 
   268     082B                     	;# 
   269     082C                     	;# 
   270     082D                     	;# 
   271     082E                     	;# 
   272     082F                     	;# 
   273     0831                     	;# 
   274     0832                     	;# 
   275     0833                     	;# 
   276     0834                     	;# 
   277     0835                     	;# 
   278     0836                     	;# 
   279     0837                     	;# 
   280     0838                     	;# 
   281     0839                     	;# 
   282     083A                     	;# 
   283     083B                     	;# 
   284     083C                     	;# 
   285     083D                     	;# 
   286     083E                     	;# 
   287     083F                     	;# 
   288     0840                     	;# 
   289     0841                     	;# 
   290     0841                     	;# 
   291     0842                     	;# 
   292     0843                     	;# 
   293     0843                     	;# 
   294     0844                     	;# 
   295     0845                     	;# 
   296     0845                     	;# 
   297     0846                     	;# 
   298     0847                     	;# 
   299     0847                     	;# 
   300     0848                     	;# 
   301     0849                     	;# 
   302     084A                     	;# 
   303     084B                     	;# 
   304     084C                     	;# 
   305     084D                     	;# 
   306     084E                     	;# 
   307     084F                     	;# 
   308     0FE4                     	;# 
   309     0FE5                     	;# 
   310     0FE6                     	;# 
   311     0FE7                     	;# 
   312     0FE8                     	;# 
   313     0FE9                     	;# 
   314     0FEA                     	;# 
   315     0FEB                     	;# 
   316     0FED                     	;# 
   317     0FEE                     	;# 
   318     0FEF                     	;# 
   319     0000                     	;# 
   320     0001                     	;# 
   321     0002                     	;# 
   322     0003                     	;# 
   323     0004                     	;# 
   324     0005                     	;# 
   325     0006                     	;# 
   326     0007                     	;# 
   327     0008                     	;# 
   328     0009                     	;# 
   329     000A                     	;# 
   330     000B                     	;# 
   331     000C                     	;# 
   332     000D                     	;# 
   333     000E                     	;# 
   334     0010                     	;# 
   335     0011                     	;# 
   336     0012                     	;# 
   337     0014                     	;# 
   338     0015                     	;# 
   339     0016                     	;# 
   340     0016                     	;# 
   341     0017                     	;# 
   342     0018                     	;# 
   343     0019                     	;# 
   344     001A                     	;# 
   345     001B                     	;# 
   346     001C                     	;# 
   347     008C                     	;# 
   348     008D                     	;# 
   349     008E                     	;# 
   350     0090                     	;# 
   351     0091                     	;# 
   352     0092                     	;# 
   353     0094                     	;# 
   354     0095                     	;# 
   355     0096                     	;# 
   356     0097                     	;# 
   357     0098                     	;# 
   358     0099                     	;# 
   359     009A                     	;# 
   360     009B                     	;# 
   361     009B                     	;# 
   362     009C                     	;# 
   363     009D                     	;# 
   364     009E                     	;# 
   365     009F                     	;# 
   366     010C                     	;# 
   367     010D                     	;# 
   368     010E                     	;# 
   369     0111                     	;# 
   370     0112                     	;# 
   371     0113                     	;# 
   372     0114                     	;# 
   373     0115                     	;# 
   374     0116                     	;# 
   375     0117                     	;# 
   376     0118                     	;# 
   377     0119                     	;# 
   378     011D                     	;# 
   379     011D                     	;# 
   380     011E                     	;# 
   381     011F                     	;# 
   382     018C                     	;# 
   383     018D                     	;# 
   384     0191                     	;# 
   385     0191                     	;# 
   386     0192                     	;# 
   387     0193                     	;# 
   388     0193                     	;# 
   389     0193                     	;# 
   390     0194                     	;# 
   391     0195                     	;# 
   392     0196                     	;# 
   393     0197                     	;# 
   394     0199                     	;# 
   395     0199                     	;# 
   396     0199                     	;# 
   397     019A                     	;# 
   398     019A                     	;# 
   399     019A                     	;# 
   400     019B                     	;# 
   401     019B                     	;# 
   402     019B                     	;# 
   403     019B                     	;# 
   404     019B                     	;# 
   405     019C                     	;# 
   406     019C                     	;# 
   407     019C                     	;# 
   408     019D                     	;# 
   409     019D                     	;# 
   410     019D                     	;# 
   411     019E                     	;# 
   412     019E                     	;# 
   413     019E                     	;# 
   414     019F                     	;# 
   415     019F                     	;# 
   416     019F                     	;# 
   417     019F                     	;# 
   418     019F                     	;# 
   419     020C                     	;# 
   420     020D                     	;# 
   421     020E                     	;# 
   422     0210                     	;# 
   423     0211                     	;# 
   424     0211                     	;# 
   425     0212                     	;# 
   426     0212                     	;# 
   427     0213                     	;# 
   428     0213                     	;# 
   429     0214                     	;# 
   430     0214                     	;# 
   431     0215                     	;# 
   432     0215                     	;# 
   433     0215                     	;# 
   434     0216                     	;# 
   435     0216                     	;# 
   436     0217                     	;# 
   437     0217                     	;# 
   438     028C                     	;# 
   439     028D                     	;# 
   440     028E                     	;# 
   441     0291                     	;# 
   442     0291                     	;# 
   443     0292                     	;# 
   444     0293                     	;# 
   445     0298                     	;# 
   446     0298                     	;# 
   447     0299                     	;# 
   448     029A                     	;# 
   449     030C                     	;# 
   450     030D                     	;# 
   451     030E                     	;# 
   452     038C                     	;# 
   453     038D                     	;# 
   454     038E                     	;# 
   455     0390                     	;# 
   456     0391                     	;# 
   457     0392                     	;# 
   458     0393                     	;# 
   459     0394                     	;# 
   460     0395                     	;# 
   461     0396                     	;# 
   462     0397                     	;# 
   463     0398                     	;# 
   464     0399                     	;# 
   465     039D                     	;# 
   466     039E                     	;# 
   467     039F                     	;# 
   468     0511                     	;# 
   469     0513                     	;# 
   470     051A                     	;# 
   471     0811                     	;# 
   472     0812                     	;# 
   473     0813                     	;# 
   474     0814                     	;# 
   475     0815                     	;# 
   476     0816                     	;# 
   477     0817                     	;# 
   478     0818                     	;# 
   479     0819                     	;# 
   480     081A                     	;# 
   481     081B                     	;# 
   482     081C                     	;# 
   483     081D                     	;# 
   484     081E                     	;# 
   485     081F                     	;# 
   486     0820                     	;# 
   487     0821                     	;# 
   488     0821                     	;# 
   489     0822                     	;# 
   490     0823                     	;# 
   491     0823                     	;# 
   492     0824                     	;# 
   493     0825                     	;# 
   494     0825                     	;# 
   495     0826                     	;# 
   496     0827                     	;# 
   497     0827                     	;# 
   498     0828                     	;# 
   499     0829                     	;# 
   500     082A                     	;# 
   501     082B                     	;# 
   502     082C                     	;# 
   503     082D                     	;# 
   504     082E                     	;# 
   505     082F                     	;# 
   506     0831                     	;# 
   507     0832                     	;# 
   508     0833                     	;# 
   509     0834                     	;# 
   510     0835                     	;# 
   511     0836                     	;# 
   512     0837                     	;# 
   513     0838                     	;# 
   514     0839                     	;# 
   515     083A                     	;# 
   516     083B                     	;# 
   517     083C                     	;# 
   518     083D                     	;# 
   519     083E                     	;# 
   520     083F                     	;# 
   521     0840                     	;# 
   522     0841                     	;# 
   523     0841                     	;# 
   524     0842                     	;# 
   525     0843                     	;# 
   526     0843                     	;# 
   527     0844                     	;# 
   528     0845                     	;# 
   529     0845                     	;# 
   530     0846                     	;# 
   531     0847                     	;# 
   532     0847                     	;# 
   533     0848                     	;# 
   534     0849                     	;# 
   535     084A                     	;# 
   536     084B                     	;# 
   537     084C                     	;# 
   538     084D                     	;# 
   539     084E                     	;# 
   540     084F                     	;# 
   541     0FE4                     	;# 
   542     0FE5                     	;# 
   543     0FE6                     	;# 
   544     0FE7                     	;# 
   545     0FE8                     	;# 
   546     0FE9                     	;# 
   547     0FEA                     	;# 
   548     0FEB                     	;# 
   549     0FED                     	;# 
   550     0FEE                     	;# 
   551     0FEF                     	;# 
   552     0000                     	;# 
   553     0001                     	;# 
   554     0002                     	;# 
   555     0003                     	;# 
   556     0004                     	;# 
   557     0005                     	;# 
   558     0006                     	;# 
   559     0007                     	;# 
   560     0008                     	;# 
   561     0009                     	;# 
   562     000A                     	;# 
   563     000B                     	;# 
   564     000C                     	;# 
   565     000D                     	;# 
   566     000E                     	;# 
   567     0010                     	;# 
   568     0011                     	;# 
   569     0012                     	;# 
   570     0014                     	;# 
   571     0015                     	;# 
   572     0016                     	;# 
   573     0016                     	;# 
   574     0017                     	;# 
   575     0018                     	;# 
   576     0019                     	;# 
   577     001A                     	;# 
   578     001B                     	;# 
   579     001C                     	;# 
   580     008C                     	;# 
   581     008D                     	;# 
   582     008E                     	;# 
   583     0090                     	;# 
   584     0091                     	;# 
   585     0092                     	;# 
   586     0094                     	;# 
   587     0095                     	;# 
   588     0096                     	;# 
   589     0097                     	;# 
   590     0098                     	;# 
   591     0099                     	;# 
   592     009A                     	;# 
   593     009B                     	;# 
   594     009B                     	;# 
   595     009C                     	;# 
   596     009D                     	;# 
   597     009E                     	;# 
   598     009F                     	;# 
   599     010C                     	;# 
   600     010D                     	;# 
   601     010E                     	;# 
   602     0111                     	;# 
   603     0112                     	;# 
   604     0113                     	;# 
   605     0114                     	;# 
   606     0115                     	;# 
   607     0116                     	;# 
   608     0117                     	;# 
   609     0118                     	;# 
   610     0119                     	;# 
   611     011D                     	;# 
   612     011D                     	;# 
   613     011E                     	;# 
   614     011F                     	;# 
   615     018C                     	;# 
   616     018D                     	;# 
   617     0191                     	;# 
   618     0191                     	;# 
   619     0192                     	;# 
   620     0193                     	;# 
   621     0193                     	;# 
   622     0193                     	;# 
   623     0194                     	;# 
   624     0195                     	;# 
   625     0196                     	;# 
   626     0197                     	;# 
   627     0199                     	;# 
   628     0199                     	;# 
   629     0199                     	;# 
   630     019A                     	;# 
   631     019A                     	;# 
   632     019A                     	;# 
   633     019B                     	;# 
   634     019B                     	;# 
   635     019B                     	;# 
   636     019B                     	;# 
   637     019B                     	;# 
   638     019C                     	;# 
   639     019C                     	;# 
   640     019C                     	;# 
   641     019D                     	;# 
   642     019D                     	;# 
   643     019D                     	;# 
   644     019E                     	;# 
   645     019E                     	;# 
   646     019E                     	;# 
   647     019F                     	;# 
   648     019F                     	;# 
   649     019F                     	;# 
   650     019F                     	;# 
   651     019F                     	;# 
   652     020C                     	;# 
   653     020D                     	;# 
   654     020E                     	;# 
   655     0210                     	;# 
   656     0211                     	;# 
   657     0211                     	;# 
   658     0212                     	;# 
   659     0212                     	;# 
   660     0213                     	;# 
   661     0213                     	;# 
   662     0214                     	;# 
   663     0214                     	;# 
   664     0215                     	;# 
   665     0215                     	;# 
   666     0215                     	;# 
   667     0216                     	;# 
   668     0216                     	;# 
   669     0217                     	;# 
   670     0217                     	;# 
   671     028C                     	;# 
   672     028D                     	;# 
   673     028E                     	;# 
   674     0291                     	;# 
   675     0291                     	;# 
   676     0292                     	;# 
   677     0293                     	;# 
   678     0298                     	;# 
   679     0298                     	;# 
   680     0299                     	;# 
   681     029A                     	;# 
   682     030C                     	;# 
   683     030D                     	;# 
   684     030E                     	;# 
   685     038C                     	;# 
   686     038D                     	;# 
   687     038E                     	;# 
   688     0390                     	;# 
   689     0391                     	;# 
   690     0392                     	;# 
   691     0393                     	;# 
   692     0394                     	;# 
   693     0395                     	;# 
   694     0396                     	;# 
   695     0397                     	;# 
   696     0398                     	;# 
   697     0399                     	;# 
   698     039D                     	;# 
   699     039E                     	;# 
   700     039F                     	;# 
   701     0511                     	;# 
   702     0513                     	;# 
   703     051A                     	;# 
   704     0811                     	;# 
   705     0812                     	;# 
   706     0813                     	;# 
   707     0814                     	;# 
   708     0815                     	;# 
   709     0816                     	;# 
   710     0817                     	;# 
   711     0818                     	;# 
   712     0819                     	;# 
   713     081A                     	;# 
   714     081B                     	;# 
   715     081C                     	;# 
   716     081D                     	;# 
   717     081E                     	;# 
   718     081F                     	;# 
   719     0820                     	;# 
   720     0821                     	;# 
   721     0821                     	;# 
   722     0822                     	;# 
   723     0823                     	;# 
   724     0823                     	;# 
   725     0824                     	;# 
   726     0825                     	;# 
   727     0825                     	;# 
   728     0826                     	;# 
   729     0827                     	;# 
   730     0827                     	;# 
   731     0828                     	;# 
   732     0829                     	;# 
   733     082A                     	;# 
   734     082B                     	;# 
   735     082C                     	;# 
   736     082D                     	;# 
   737     082E                     	;# 
   738     082F                     	;# 
   739     0831                     	;# 
   740     0832                     	;# 
   741     0833                     	;# 
   742     0834                     	;# 
   743     0835                     	;# 
   744     0836                     	;# 
   745     0837                     	;# 
   746     0838                     	;# 
   747     0839                     	;# 
   748     083A                     	;# 
   749     083B                     	;# 
   750     083C                     	;# 
   751     083D                     	;# 
   752     083E                     	;# 
   753     083F                     	;# 
   754     0840                     	;# 
   755     0841                     	;# 
   756     0841                     	;# 
   757     0842                     	;# 
   758     0843                     	;# 
   759     0843                     	;# 
   760     0844                     	;# 
   761     0845                     	;# 
   762     0845                     	;# 
   763     0846                     	;# 
   764     0847                     	;# 
   765     0847                     	;# 
   766     0848                     	;# 
   767     0849                     	;# 
   768     084A                     	;# 
   769     084B                     	;# 
   770     084C                     	;# 
   771     084D                     	;# 
   772     084E                     	;# 
   773     084F                     	;# 
   774     0FE4                     	;# 
   775     0FE5                     	;# 
   776     0FE6                     	;# 
   777     0FE7                     	;# 
   778     0FE8                     	;# 
   779     0FE9                     	;# 
   780     0FEA                     	;# 
   781     0FEB                     	;# 
   782     0FED                     	;# 
   783     0FEE                     	;# 
   784     0FEF                     	;# 
   785     008C                     _TRISAbits	set	140
   786     008E                     _TRISCbits	set	142
   787     008D                     _TRISBbits	set	141
   788     011D                     _APFCONbits	set	285
   789     010E                     _LATCbits	set	270
   790     010D                     _LATBbits	set	269
   791     018C                     _ANSELAbits	set	396
   792     018D                     _ANSELBbits	set	397
   793     0211                     _SSPBUF	set	529
   794     0216                     _SSPCON2bits	set	534
   795     0216                     _SSPCON2	set	534
   796     0212                     _SSPADD	set	530
   797     0217                     _SSPCON3bits	set	535
   798     0214                     _SSPSTATbits	set	532
   799     0215                     _SSPCON1bits	set	533
   800                           
   801                           	psect	stringtext1
   802     0800                     __pstringtext1:
   803     0800                     STR_1:
   804     0800  3449               	retlw	73	;'I'
   805     0801  3432               	retlw	50	;'2'
   806     0802  3443               	retlw	67	;'C'
   807     0803  3420               	retlw	32	;' '
   808     0804  3452               	retlw	82	;'R'
   809     0805  3454               	retlw	84	;'T'
   810     0806  3443               	retlw	67	;'C'
   811     0807  3443               	retlw	67	;'C'
   812     0808  3400               	retlw	0
   813                           
   814                           	psect	stringtext2
   815     0809                     __pstringtext2:
   816     0809                     STR_8:
   817     0809  3453               	retlw	83	;'S'
   818     080A  3461               	retlw	97	;'a'
   819     080B  3400               	retlw	0
   820                           
   821                           	psect	stringtext3
   822     080C                     __pstringtext3:
   823     080C                     STR_9:
   824     080C  3444               	retlw	68	;'D'
   825     080D  3464               	retlw	100	;'d'
   826     080E  3400               	retlw	0
   827                           
   828                           	psect	stringtext4
   829     080F                     __pstringtext4:
   830     080F                     STR_5:
   831     080F  3457               	retlw	87	;'W'
   832     0810  3465               	retlw	101	;'e'
   833     0811  3400               	retlw	0
   834                           
   835                           	psect	stringtext5
   836     0812                     __pstringtext5:
   837     0812                     STR_6:
   838     0812  3454               	retlw	84	;'T'
   839     0813  3468               	retlw	104	;'h'
   840     0814  3400               	retlw	0
   841                           
   842                           	psect	stringtext6
   843     0815                     __pstringtext6:
   844     0815                     STR_3:
   845     0815  344D               	retlw	77	;'M'
   846     0816  346F               	retlw	111	;'o'
   847     0817  3400               	retlw	0
   848                           
   849                           	psect	stringtext7
   850     0818                     __pstringtext7:
   851     0818                     STR_7:
   852     0818  3446               	retlw	70	;'F'
   853     0819  3472               	retlw	114	;'r'
   854     081A  3400               	retlw	0
   855                           
   856                           	psect	stringtext8
   857     081B                     __pstringtext8:
   858     081B                     STR_2:
   859     081B  3453               	retlw	83	;'S'
   860     081C  3475               	retlw	117	;'u'
   861     081D  3400               	retlw	0
   862                           
   863                           	psect	stringtext9
   864     081E                     __pstringtext9:
   865     081E                     STR_4:
   866     081E  3454               	retlw	84	;'T'
   867     081F  3475               	retlw	117	;'u'
   868     0820  3400               	retlw	0
   869                           
   870                           	psect	stringtext10
   871     0000                     __pstringtext10:
   872                           
   873                           	psect	cinit
   874     07FB                     start_initialization:	
   875                           ; #config settings
   876                           
   877     07FB                     __initialization:
   878                           
   879                           ; Clear objects allocated to BANK0
   880     07FB  0020               	movlb	0	; select bank0
   881     07FC  01E7               	clrf	__pbssBANK0& (0+127)
   882     07FD                     end_of_initialization:	
   883                           ;End of C runtime variable initialization code
   884                           
   885     07FD                     __end_of__initialization:
   886     07FD  0020               	movlb	0
   887     07FE  3182  2AC1         	ljmp	_main	;jump to C main() function
   888                           
   889                           	psect	bssBANK0
   890     0067                     __pbssBANK0:
   891     0067                     _RxData:
   892     0067                     	ds	1
   893                           
   894                           	psect	cstackCOMMON
   895     0070                     __pcstackCOMMON:
   896     0070                     ?_programInitialize:
   897     0070                     ?_programLoop:	
   898                           ; 1 bytes @ 0x0
   899                           
   900     0070                     ?_lcd_Initialize:	
   901                           ; 1 bytes @ 0x0
   902                           
   903     0070                     ?_rtcc_ConvertBcdToDec:	
   904                           ; 1 bytes @ 0x0
   905                           
   906     0070                     ?_lcd_PrintChar:	
   907                           ; 1 bytes @ 0x0
   908                           
   909     0070                     ?_memset:	
   910                           ; 1 bytes @ 0x0
   911                           
   912     0070                     ?_main:	
   913                           ; 1 bytes @ 0x0
   914                           
   915     0070                     ?_delay_x1o5us:	
   916                           ; 1 bytes @ 0x0
   917                           
   918     0070                     ??_delay_x1o5us:	
   919                           ; 1 bytes @ 0x0
   920                           
   921     0070                     ?_lcd_DelaySetupTime:	
   922                           ; 1 bytes @ 0x0
   923                           
   924     0070                     ?_lcd_DelayPulse:	
   925                           ; 1 bytes @ 0x0
   926                           
   927     0070                     ?_lcd_EPulse:	
   928                           ; 1 bytes @ 0x0
   929                           
   930     0070                     ?_lcd_WriteData:	
   931                           ; 1 bytes @ 0x0
   932                           
   933     0070                     ?_lcd_PrintCmd:	
   934                           ; 1 bytes @ 0x0
   935                           
   936     0070                     ?_i2c_BusIdle:	
   937                           ; 1 bytes @ 0x0
   938                           
   939     0070                     ??_i2c_BusIdle:	
   940                           ; 1 bytes @ 0x0
   941                           
   942     0070                     ?_i2c_MasterStart:	
   943                           ; 1 bytes @ 0x0
   944                           
   945     0070                     ??_i2c_MasterStart:	
   946                           ; 1 bytes @ 0x0
   947                           
   948     0070                     ?_i2c_MasterRstart:	
   949                           ; 1 bytes @ 0x0
   950                           
   951     0070                     ??_i2c_MasterRstart:	
   952                           ; 1 bytes @ 0x0
   953                           
   954     0070                     ?_i2c_MasterStop:	
   955                           ; 1 bytes @ 0x0
   956                           
   957     0070                     ?_i2c_MasterWrite:	
   958                           ; 1 bytes @ 0x0
   959                           
   960     0070                     ??_i2c_MasterWrite:	
   961                           ; 1 bytes @ 0x0
   962                           
   963     0070                     ?_i2c_MasterRead:	
   964                           ; 1 bytes @ 0x0
   965                           
   966     0070                     ??_i2c_MasterRead:	
   967                           ; 1 bytes @ 0x0
   968                           
   969     0070                     ?___bmul:	
   970                           ; 1 bytes @ 0x0
   971                           
   972     0070                     ?_labs:	
   973                           ; 1 bytes @ 0x0
   974                           
   975     0070                     ?___lldiv:	
   976                           ; 4 bytes @ 0x0
   977                           
   978     0070                     ?___aldiv:	
   979                           ; 4 bytes @ 0x0
   980                           
   981     0070                     i2c_MasterWrite@byte:	
   982                           ; 4 bytes @ 0x0
   983                           
   984     0070                     i2c_MasterRead@ack:	
   985                           ; 1 bytes @ 0x0
   986                           
   987     0070                     ___bmul@multiplicand:	
   988                           ; 1 bytes @ 0x0
   989                           
   990     0070                     memset@c:	
   991                           ; 1 bytes @ 0x0
   992                           
   993     0070                     ___lldiv@divisor:	
   994                           ; 2 bytes @ 0x0
   995                           
   996     0070                     ___aldiv@divisor:	
   997                           ; 4 bytes @ 0x0
   998                           
   999     0070                     labs@a:	
  1000                           ; 4 bytes @ 0x0
  1001                           
  1002                           
  1003                           ; 4 bytes @ 0x0
  1004     0070                     	ds	1
  1005     0071                     ??___bmul:
  1006     0071                     delay_x1o5us@delay:	
  1007                           ; 1 bytes @ 0x1
  1008                           
  1009     0071                     i2c_MasterRead@data:	
  1010                           ; 1 bytes @ 0x1
  1011                           
  1012                           
  1013                           ; 1 bytes @ 0x1
  1014     0071                     	ds	1
  1015     0072                     delay_x1o5us@i:
  1016     0072                     ___bmul@product:	
  1017                           ; 1 bytes @ 0x2
  1018                           
  1019     0072                     memset@n:	
  1020                           ; 1 bytes @ 0x2
  1021                           
  1022                           
  1023                           ; 2 bytes @ 0x2
  1024     0072                     	ds	1
  1025     0073                     ?_delay_x24o25us:
  1026     0073                     ??_lcd_DelaySetupTime:	
  1027                           ; 1 bytes @ 0x3
  1028                           
  1029     0073                     ??_lcd_DelayPulse:	
  1030                           ; 1 bytes @ 0x3
  1031                           
  1032     0073                     ??_lcd_EPulse:	
  1033                           ; 1 bytes @ 0x3
  1034                           
  1035     0073                     ??_lcd_WriteData:	
  1036                           ; 1 bytes @ 0x3
  1037                           
  1038     0073                     ___bmul@multiplier:	
  1039                           ; 1 bytes @ 0x3
  1040                           
  1041     0073                     delay_x24o25us@delay:	
  1042                           ; 1 bytes @ 0x3
  1043                           
  1044                           
  1045                           ; 2 bytes @ 0x3
  1046     0073                     	ds	1
  1047     0074                     ??_rtcc_ConvertBcdToDec:
  1048     0074                     ??_memset:	
  1049                           ; 1 bytes @ 0x4
  1050                           
  1051     0074                     ??_labs:	
  1052                           ; 1 bytes @ 0x4
  1053                           
  1054     0074                     ___lldiv@dividend:	
  1055                           ; 1 bytes @ 0x4
  1056                           
  1057     0074                     ___aldiv@dividend:	
  1058                           ; 4 bytes @ 0x4
  1059                           
  1060                           
  1061                           ; 4 bytes @ 0x4
  1062     0074                     	ds	1
  1063     0075                     ??_delay_x24o25us:
  1064     0075                     lcd_WriteData@data:	
  1065                           ; 1 bytes @ 0x5
  1066                           
  1067     0075                     memset@p:	
  1068                           ; 1 bytes @ 0x5
  1069                           
  1070     0075                     delay_x24o25us@i:	
  1071                           ; 1 bytes @ 0x5
  1072                           
  1073                           
  1074                           ; 2 bytes @ 0x5
  1075     0075                     	ds	1
  1076     0076                     ??_lcd_PrintChar:
  1077     0076                     ??_lcd_PrintCmd:	
  1078                           ; 1 bytes @ 0x6
  1079                           
  1080     0076                     rtcc_ConvertBcdToDec@bcd:	
  1081                           ; 1 bytes @ 0x6
  1082                           
  1083     0076                     lcd_PrintCmd@command:	
  1084                           ; 1 bytes @ 0x6
  1085                           
  1086     0076                     lcd_PrintChar@character:	
  1087                           ; 1 bytes @ 0x6
  1088                           
  1089     0076                     memset@dest:	
  1090                           ; 1 bytes @ 0x6
  1091                           
  1092                           
  1093                           ; 1 bytes @ 0x6
  1094     0076                     	ds	1
  1095     0077                     ?_delay_ms:
  1096     0077                     ?_i2c_MasterByteReadSlave:	
  1097                           ; 1 bytes @ 0x7
  1098                           
  1099     0077                     ?_lcd_Goto:	
  1100                           ; 1 bytes @ 0x7
  1101                           
  1102     0077                     ?_lcd_PrintString:	
  1103                           ; 1 bytes @ 0x7
  1104                           
  1105     0077                     ??_i2c_MasterStop:	
  1106                           ; 1 bytes @ 0x7
  1107                           
  1108     0077                     lcd_Goto@x:	
  1109                           ; 1 bytes @ 0x7
  1110                           
  1111     0077                     i2c_MasterByteReadSlave@addrReg:	
  1112                           ; 1 bytes @ 0x7
  1113                           
  1114     0077                     lcd_PrintString@string:	
  1115                           ; 1 bytes @ 0x7
  1116                           
  1117     0077                     delay_ms@delay:	
  1118                           ; 2 bytes @ 0x7
  1119                           
  1120                           
  1121                           ; 4 bytes @ 0x7
  1122     0077                     	ds	1
  1123     0078                     ??_i2c_MasterByteReadSlave:
  1124     0078                     ??_lcd_Goto:	
  1125                           ; 1 bytes @ 0x8
  1126                           
  1127     0078                     ??___lldiv:	
  1128                           ; 1 bytes @ 0x8
  1129                           
  1130     0078                     ??___aldiv:	
  1131                           ; 1 bytes @ 0x8
  1132                           
  1133     0078                     lcd_Goto@y:	
  1134                           ; 1 bytes @ 0x8
  1135                           
  1136     0078                     i2c_MasterByteReadSlave@data:	
  1137                           ; 1 bytes @ 0x8
  1138                           
  1139                           
  1140                           ; 1 bytes @ 0x8
  1141     0078                     	ds	1
  1142     0079                     ??_lcd_PrintString:
  1143     0079                     i2c_MasterByteReadSlave@addrDev:	
  1144                           ; 1 bytes @ 0x9
  1145                           
  1146     0079                     ___lldiv@quotient:	
  1147                           ; 1 bytes @ 0x9
  1148                           
  1149                           
  1150                           ; 4 bytes @ 0x9
  1151     0079                     	ds	1
  1152     007A                     ??_lcd_PrintDigitInt32:
  1153                           
  1154                           ; 1 bytes @ 0xA
  1155     007A                     	ds	1
  1156     007B                     ??_delay_ms:
  1157     007B                     ??_lcd_Initialize:	
  1158                           ; 1 bytes @ 0xB
  1159                           
  1160                           
  1161                           ; 1 bytes @ 0xB
  1162     007B                     	ds	2
  1163     007D                     ___lldiv@counter:
  1164                           
  1165                           ; 1 bytes @ 0xD
  1166     007D                     	ds	1
  1167     007E                     ??_programInitialize:
  1168     007E                     ??_main:	
  1169                           ; 1 bytes @ 0xE
  1170                           
  1171                           
  1172                           	psect	cstackBANK0
  1173     0020                     __pcstackBANK0:	
  1174                           ; 1 bytes @ 0xE
  1175                           
  1176     0020                     ?_i2c_Initialize:
  1177     0020                     ___aldiv@counter:	
  1178                           ; 1 bytes @ 0x0
  1179                           
  1180     0020                     delay_ms@i:	
  1181                           ; 1 bytes @ 0x0
  1182                           
  1183     0020                     i2c_Initialize@fosc:	
  1184                           ; 4 bytes @ 0x0
  1185                           
  1186                           
  1187                           ; 4 bytes @ 0x0
  1188     0020                     	ds	1
  1189     0021                     ___aldiv@sign:
  1190                           
  1191                           ; 1 bytes @ 0x1
  1192     0021                     	ds	1
  1193     0022                     ___aldiv@quotient:
  1194                           
  1195                           ; 4 bytes @ 0x2
  1196     0022                     	ds	2
  1197     0024                     i2c_Initialize@baudrate:
  1198                           
  1199                           ; 2 bytes @ 0x4
  1200     0024                     	ds	2
  1201     0026                     ??_i2c_Initialize:
  1202     0026                     ?_lcd_PrintDigitInt32:	
  1203                           ; 1 bytes @ 0x6
  1204                           
  1205     0026                     lcd_PrintDigitInt32@number:	
  1206                           ; 1 bytes @ 0x6
  1207                           
  1208                           
  1209                           ; 4 bytes @ 0x6
  1210     0026                     	ds	4
  1211     002A                     lcd_PrintDigitInt32@noDigit:
  1212                           
  1213                           ; 1 bytes @ 0xA
  1214     002A                     	ds	1
  1215     002B                     lcd_PrintDigitInt32@enSign:
  1216                           
  1217                           ; 1 bytes @ 0xB
  1218     002B                     	ds	1
  1219     002C                     lcd_PrintDigitInt32@enZero:
  1220                           
  1221                           ; 1 bytes @ 0xC
  1222     002C                     	ds	1
  1223     002D                     lcd_PrintDigitInt32@numberRevChar:
  1224                           
  1225                           ; 11 bytes @ 0xD
  1226     002D                     	ds	11
  1227     0038                     lcd_PrintDigitInt32@numberChar:
  1228                           
  1229                           ; 11 bytes @ 0x18
  1230     0038                     	ds	11
  1231     0043                     lcd_PrintDigitInt32@tempN:
  1232                           
  1233                           ; 4 bytes @ 0x23
  1234     0043                     	ds	4
  1235     0047                     lcd_PrintDigitInt32@tempC:
  1236                           
  1237                           ; 1 bytes @ 0x27
  1238     0047                     	ds	1
  1239     0048                     lcd_PrintDigitInt32@i2:
  1240                           
  1241                           ; 1 bytes @ 0x28
  1242     0048                     	ds	1
  1243     0049                     lcd_PrintDigitInt32@totalDigit:
  1244                           
  1245                           ; 1 bytes @ 0x29
  1246     0049                     	ds	1
  1247     004A                     lcd_PrintDigitInt32@i1:
  1248                           
  1249                           ; 1 bytes @ 0x2A
  1250     004A                     	ds	1
  1251     004B                     ?_rtcc_LcdDisplay:
  1252     004B                     rtcc_LcdDisplay@date:	
  1253                           ; 1 bytes @ 0x2B
  1254                           
  1255                           
  1256                           ; 1 bytes @ 0x2B
  1257     004B                     	ds	1
  1258     004C                     rtcc_LcdDisplay@month:
  1259                           
  1260                           ; 1 bytes @ 0x2C
  1261     004C                     	ds	1
  1262     004D                     rtcc_LcdDisplay@century:
  1263                           
  1264                           ; 1 bytes @ 0x2D
  1265     004D                     	ds	1
  1266     004E                     rtcc_LcdDisplay@year:
  1267                           
  1268                           ; 1 bytes @ 0x2E
  1269     004E                     	ds	1
  1270     004F                     rtcc_LcdDisplay@hour:
  1271                           
  1272                           ; 1 bytes @ 0x2F
  1273     004F                     	ds	1
  1274     0050                     rtcc_LcdDisplay@minute:
  1275                           
  1276                           ; 1 bytes @ 0x30
  1277     0050                     	ds	1
  1278     0051                     rtcc_LcdDisplay@second:
  1279                           
  1280                           ; 1 bytes @ 0x31
  1281     0051                     	ds	1
  1282     0052                     ??_rtcc_LcdDisplay:
  1283                           
  1284                           ; 1 bytes @ 0x32
  1285     0052                     	ds	4
  1286     0056                     rtcc_LcdDisplay@day:
  1287                           
  1288                           ; 1 bytes @ 0x36
  1289     0056                     	ds	1
  1290     0057                     ??_programLoop:
  1291                           
  1292                           ; 1 bytes @ 0x37
  1293     0057                     	ds	1
  1294     0058                     programLoop@bcdSecondPrev:
  1295                           
  1296                           ; 1 bytes @ 0x38
  1297     0058                     	ds	1
  1298     0059                     programLoop@decSecond:
  1299                           
  1300                           ; 1 bytes @ 0x39
  1301     0059                     	ds	1
  1302     005A                     programLoop@bcdMinute:
  1303                           
  1304                           ; 1 bytes @ 0x3A
  1305     005A                     	ds	1
  1306     005B                     programLoop@bcdHour:
  1307                           
  1308                           ; 1 bytes @ 0x3B
  1309     005B                     	ds	1
  1310     005C                     programLoop@bcdDate:
  1311                           
  1312                           ; 1 bytes @ 0x3C
  1313     005C                     	ds	1
  1314     005D                     programLoop@bcdYear:
  1315                           
  1316                           ; 1 bytes @ 0x3D
  1317     005D                     	ds	1
  1318     005E                     programLoop@decMinute:
  1319                           
  1320                           ; 1 bytes @ 0x3E
  1321     005E                     	ds	1
  1322     005F                     programLoop@decHour:
  1323                           
  1324                           ; 1 bytes @ 0x3F
  1325     005F                     	ds	1
  1326     0060                     programLoop@decDate:
  1327                           
  1328                           ; 1 bytes @ 0x40
  1329     0060                     	ds	1
  1330     0061                     programLoop@decMonth:
  1331                           
  1332                           ; 1 bytes @ 0x41
  1333     0061                     	ds	1
  1334     0062                     programLoop@decYear:
  1335                           
  1336                           ; 1 bytes @ 0x42
  1337     0062                     	ds	1
  1338     0063                     programLoop@decCentury:
  1339                           
  1340                           ; 1 bytes @ 0x43
  1341     0063                     	ds	1
  1342     0064                     programLoop@day:
  1343                           
  1344                           ; 1 bytes @ 0x44
  1345     0064                     	ds	1
  1346     0065                     programLoop@bcdMonth:
  1347                           
  1348                           ; 1 bytes @ 0x45
  1349     0065                     	ds	1
  1350     0066                     programLoop@bcdSecond:
  1351                           
  1352                           ; 1 bytes @ 0x46
  1353     0066                     	ds	1
  1354                           
  1355                           	psect	maintext
  1356     02C1                     __pmaintext:	
  1357 ;;
  1358 ;;Main: autosize = 0, tempsize = 0, incstack = 0, save=0
  1359 ;;
  1360 ;; *************** function _main *****************
  1361 ;; Defined at:
  1362 ;;		line 26 in file "main.c"
  1363 ;; Parameters:    Size  Location     Type
  1364 ;;		None
  1365 ;; Auto vars:     Size  Location     Type
  1366 ;;		None
  1367 ;; Return value:  Size  Location     Type
  1368 ;;                  1    wreg      void 
  1369 ;; Registers used:
  1370 ;;		wreg, fsr0l, fsr0h, fsr1l, fsr1h, status,2, status,0, pclath, cstack
  1371 ;; Tracked objects:
  1372 ;;		On entry : B1F/0
  1373 ;;		On exit  : 0/0
  1374 ;;		Unchanged: 0/0
  1375 ;; Data sizes:     COMMON   BANK0   BANK1   BANK2   BANK3   BANK4   BANK5
  1376 ;;      Params:         0       0       0       0       0       0       0
  1377 ;;      Locals:         0       0       0       0       0       0       0
  1378 ;;      Temps:          0       0       0       0       0       0       0
  1379 ;;      Totals:         0       0       0       0       0       0       0
  1380 ;;Total ram usage:        0 bytes
  1381 ;; Hardware stack levels required when called: 9
  1382 ;; This function calls:
  1383 ;;		_delay_ms
  1384 ;;		_programInitialize
  1385 ;;		_programLoop
  1386 ;; This function is called by:
  1387 ;;		Startup code after reset
  1388 ;; This function uses a non-reentrant model
  1389 ;;
  1390                           
  1391     02C1                     _main:	
  1392                           ;psect for function _main
  1393                           
  1394     02C1                     l1733:	
  1395                           ;incstack = 0
  1396                           ; Regs used in _main: [wreg-fsr1h+status,2+status,0+pclath+cstack]
  1397                           
  1398                           
  1399                           ;main.c: 27:     delay_ms(100);
  1400     02C1  3000               	movlw	0
  1401     02C2  00FA               	movwf	delay_ms@delay+3
  1402     02C3  3000               	movlw	0
  1403     02C4  00F9               	movwf	delay_ms@delay+2
  1404     02C5  3000               	movlw	0
  1405     02C6  00F8               	movwf	delay_ms@delay+1
  1406     02C7  3064               	movlw	100
  1407     02C8  00F7               	movwf	delay_ms@delay
  1408     02C9  3182  22E0  3182   	fcall	_delay_ms
  1409                           
  1410                           ;main.c: 28:     delay_ms(141);
  1411     02CC  3000               	movlw	0
  1412     02CD  00FA               	movwf	delay_ms@delay+3
  1413     02CE  3000               	movlw	0
  1414     02CF  00F9               	movwf	delay_ms@delay+2
  1415     02D0  3000               	movlw	0
  1416     02D1  00F8               	movwf	delay_ms@delay+1
  1417     02D2  308D               	movlw	141
  1418     02D3  00F7               	movwf	delay_ms@delay
  1419     02D4  3182  22E0  3182   	fcall	_delay_ms
  1420     02D7                     l1735:
  1421                           
  1422                           ;main.c: 30:     programInitialize();
  1423     02D7  3183  238E  3182   	fcall	_programInitialize
  1424     02DA                     l1737:
  1425                           
  1426                           ;main.c: 33:         programLoop();
  1427     02DA  3185  254A  3182   	fcall	_programLoop
  1428     02DD  2ADA               	goto	l1737
  1429     02DE  3180  2802         	ljmp	start
  1430     02E0                     __end_of_main:
  1431                           
  1432                           	psect	text1
  1433     054A                     __ptext1:	
  1434 ;; *************** function _programLoop *****************
  1435 ;; Defined at:
  1436 ;;		line 78 in file "program.c"
  1437 ;; Parameters:    Size  Location     Type
  1438 ;;		None
  1439 ;; Auto vars:     Size  Location     Type
  1440 ;;  bcdSecond       1   70[BANK0 ] unsigned char 
  1441 ;;  bcdMonth        1   69[BANK0 ] unsigned char 
  1442 ;;  day             1   68[BANK0 ] unsigned char 
  1443 ;;  decCentury      1   67[BANK0 ] unsigned char 
  1444 ;;  decYear         1   66[BANK0 ] unsigned char 
  1445 ;;  decMonth        1   65[BANK0 ] unsigned char 
  1446 ;;  decDate         1   64[BANK0 ] unsigned char 
  1447 ;;  decHour         1   63[BANK0 ] unsigned char 
  1448 ;;  decMinute       1   62[BANK0 ] unsigned char 
  1449 ;;  bcdYear         1   61[BANK0 ] unsigned char 
  1450 ;;  bcdDate         1   60[BANK0 ] unsigned char 
  1451 ;;  bcdHour         1   59[BANK0 ] unsigned char 
  1452 ;;  bcdMinute       1   58[BANK0 ] unsigned char 
  1453 ;;  decSecond       1   57[BANK0 ] unsigned char 
  1454 ;;  bcdSecondPre    1   56[BANK0 ] unsigned char 
  1455 ;; Return value:  Size  Location     Type
  1456 ;;                  1    wreg      void 
  1457 ;; Registers used:
  1458 ;;		wreg, fsr0l, fsr0h, fsr1l, fsr1h, status,2, status,0, pclath, cstack
  1459 ;; Tracked objects:
  1460 ;;		On entry : 0/0
  1461 ;;		On exit  : 0/0
  1462 ;;		Unchanged: 0/0
  1463 ;; Data sizes:     COMMON   BANK0   BANK1   BANK2   BANK3   BANK4   BANK5
  1464 ;;      Params:         0       0       0       0       0       0       0
  1465 ;;      Locals:         0      15       0       0       0       0       0
  1466 ;;      Temps:          0       1       0       0       0       0       0
  1467 ;;      Totals:         0      16       0       0       0       0       0
  1468 ;;Total ram usage:       16 bytes
  1469 ;; Hardware stack levels used: 1
  1470 ;; Hardware stack levels required when called: 8
  1471 ;; This function calls:
  1472 ;;		_delay_ms
  1473 ;;		_i2c_MasterByteReadSlave
  1474 ;;		_rtcc_ConvertBcdToDec
  1475 ;;		_rtcc_LcdDisplay
  1476 ;; This function is called by:
  1477 ;;		_main
  1478 ;; This function uses a non-reentrant model
  1479 ;;
  1480                           
  1481     054A                     _programLoop:	
  1482                           ;psect for function _programLoop
  1483                           
  1484     054A                     l1709:	
  1485                           ;incstack = 0
  1486                           ; Regs used in _programLoop: [wreg-fsr1h+status,2+status,0+pclath+cstack]
  1487                           
  1488                           
  1489                           ;program.c: 80:     uint8_t bcdSecondPrev = 0;
  1490     054A  0020               	movlb	0	; select bank0
  1491     054B  01D8               	clrf	programLoop@bcdSecondPrev
  1492                           
  1493                           ;program.c: 81:     uint8_t decSecond = 0;
  1494     054C  01D9               	clrf	programLoop@decSecond
  1495                           
  1496                           ;program.c: 83:     uint8_t bcdMinute = 0;
  1497     054D  01DA               	clrf	programLoop@bcdMinute
  1498                           
  1499                           ;program.c: 84:     uint8_t bcdHour = 0;
  1500     054E  01DB               	clrf	programLoop@bcdHour
  1501                           
  1502                           ;program.c: 85:     uint8_t bcdDate = 0;
  1503     054F  01DC               	clrf	programLoop@bcdDate
  1504                           
  1505                           ;program.c: 86:     uint8_t bcdMonth = 0;
  1506     0550  01E5               	clrf	programLoop@bcdMonth
  1507                           
  1508                           ;program.c: 87:     uint8_t bcdYear = 0;
  1509     0551  01DD               	clrf	programLoop@bcdYear
  1510                           
  1511                           ;program.c: 89:     uint8_t decMinute = 0;
  1512     0552  01DE               	clrf	programLoop@decMinute
  1513                           
  1514                           ;program.c: 90:     uint8_t decHour = 0;
  1515     0553  01DF               	clrf	programLoop@decHour
  1516                           
  1517                           ;program.c: 91:     uint8_t decDate = 0;
  1518     0554  01E0               	clrf	programLoop@decDate
  1519                           
  1520                           ;program.c: 92:     uint8_t decMonth = 0;
  1521     0555  01E1               	clrf	programLoop@decMonth
  1522                           
  1523                           ;program.c: 93:     uint8_t decYear = 0;
  1524     0556  01E2               	clrf	programLoop@decYear
  1525                           
  1526                           ;program.c: 94:     uint8_t decCentury = 0;
  1527     0557  01E3               	clrf	programLoop@decCentury
  1528                           
  1529                           ;program.c: 96:     uint8_t day = 0;
  1530     0558  01E4               	clrf	programLoop@day
  1531     0559                     l1711:
  1532                           
  1533                           ;program.c: 101:         bcdSecond = i2c_MasterByteReadSlave(0x68, 0);
  1534     0559  01F7               	clrf	i2c_MasterByteReadSlave@addrReg
  1535     055A  3068               	movlw	104
  1536     055B  3182  22A3  3185   	fcall	_i2c_MasterByteReadSlave
  1537     055E  0020               	movlb	0	; select bank0
  1538     055F  00E6               	movwf	programLoop@bcdSecond
  1539     0560                     l1713:
  1540                           
  1541                           ;program.c: 103:         if(bcdSecond != bcdSecondPrev) {
  1542     0560  0866               	movf	programLoop@bcdSecond,w
  1543     0561  0658               	xorwf	programLoop@bcdSecondPrev,w
  1544     0562  1903               	skipnz
  1545     0563  2D65               	goto	u981
  1546     0564  2D66               	goto	u980
  1547     0565                     u981:
  1548     0565  2DD6               	goto	l1721
  1549     0566                     u980:
  1550     0566                     l1715:
  1551                           
  1552                           ;program.c: 106:             bcdMinute = i2c_MasterByteReadSlave(0x68, 1);
  1553     0566  01F7               	clrf	i2c_MasterByteReadSlave@addrReg
  1554     0567  0AF7               	incf	i2c_MasterByteReadSlave@addrReg,f
  1555     0568  3068               	movlw	104
  1556     0569  3182  22A3  3185   	fcall	_i2c_MasterByteReadSlave
  1557     056C  0020               	movlb	0	; select bank0
  1558     056D  00DA               	movwf	programLoop@bcdMinute
  1559                           
  1560                           ;program.c: 107:             bcdHour = i2c_MasterByteReadSlave(0x68, 2);
  1561     056E  3002               	movlw	2
  1562     056F  00F7               	movwf	i2c_MasterByteReadSlave@addrReg
  1563     0570  3068               	movlw	104
  1564     0571  3182  22A3  3185   	fcall	_i2c_MasterByteReadSlave
  1565     0574  0020               	movlb	0	; select bank0
  1566     0575  00DB               	movwf	programLoop@bcdHour
  1567                           
  1568                           ;program.c: 108:             day = i2c_MasterByteReadSlave(0x68, 3);
  1569     0576  3003               	movlw	3
  1570     0577  00F7               	movwf	i2c_MasterByteReadSlave@addrReg
  1571     0578  3068               	movlw	104
  1572     0579  3182  22A3  3185   	fcall	_i2c_MasterByteReadSlave
  1573     057C  0020               	movlb	0	; select bank0
  1574     057D  00E4               	movwf	programLoop@day
  1575                           
  1576                           ;program.c: 109:             bcdDate = i2c_MasterByteReadSlave(0x68, 4);
  1577     057E  3004               	movlw	4
  1578     057F  00F7               	movwf	i2c_MasterByteReadSlave@addrReg
  1579     0580  3068               	movlw	104
  1580     0581  3182  22A3  3185   	fcall	_i2c_MasterByteReadSlave
  1581     0584  0020               	movlb	0	; select bank0
  1582     0585  00DC               	movwf	programLoop@bcdDate
  1583                           
  1584                           ;program.c: 110:             bcdMonth = i2c_MasterByteReadSlave(0x68, 5);
  1585     0586  3005               	movlw	5
  1586     0587  00F7               	movwf	i2c_MasterByteReadSlave@addrReg
  1587     0588  3068               	movlw	104
  1588     0589  3182  22A3  3185   	fcall	_i2c_MasterByteReadSlave
  1589     058C  0020               	movlb	0	; select bank0
  1590     058D  00E5               	movwf	programLoop@bcdMonth
  1591                           
  1592                           ;program.c: 111:             bcdYear = i2c_MasterByteReadSlave(0x68, 6);
  1593     058E  3006               	movlw	6
  1594     058F  00F7               	movwf	i2c_MasterByteReadSlave@addrReg
  1595     0590  3068               	movlw	104
  1596     0591  3182  22A3  3185   	fcall	_i2c_MasterByteReadSlave
  1597     0594  0020               	movlb	0	; select bank0
  1598     0595  00DD               	movwf	programLoop@bcdYear
  1599                           
  1600                           ;program.c: 115:             decSecond = rtcc_ConvertBcdToDec(bcdSecond);
  1601     0596  0866               	movf	programLoop@bcdSecond,w
  1602     0597  3182  2202  3185   	fcall	_rtcc_ConvertBcdToDec
  1603     059A  0020               	movlb	0	; select bank0
  1604     059B  00D9               	movwf	programLoop@decSecond
  1605                           
  1606                           ;program.c: 116:             decMinute = rtcc_ConvertBcdToDec(bcdMinute);
  1607     059C  085A               	movf	programLoop@bcdMinute,w
  1608     059D  3182  2202  3185   	fcall	_rtcc_ConvertBcdToDec
  1609     05A0  0020               	movlb	0	; select bank0
  1610     05A1  00DE               	movwf	programLoop@decMinute
  1611                           
  1612                           ;program.c: 117:             decHour = rtcc_ConvertBcdToDec(bcdHour);
  1613     05A2  085B               	movf	programLoop@bcdHour,w
  1614     05A3  3182  2202  3185   	fcall	_rtcc_ConvertBcdToDec
  1615     05A6  0020               	movlb	0	; select bank0
  1616     05A7  00DF               	movwf	programLoop@decHour
  1617                           
  1618                           ;program.c: 118:             decDate = rtcc_ConvertBcdToDec(bcdDate);
  1619     05A8  085C               	movf	programLoop@bcdDate,w
  1620     05A9  3182  2202  3185   	fcall	_rtcc_ConvertBcdToDec
  1621     05AC  0020               	movlb	0	; select bank0
  1622     05AD  00E0               	movwf	programLoop@decDate
  1623                           
  1624                           ;program.c: 119:             decMonth = rtcc_ConvertBcdToDec(bcdMonth & 0x1F);
  1625     05AE  0865               	movf	programLoop@bcdMonth,w
  1626     05AF  391F               	andlw	31
  1627     05B0  3182  2202  3185   	fcall	_rtcc_ConvertBcdToDec
  1628     05B3  0020               	movlb	0	; select bank0
  1629     05B4  00E1               	movwf	programLoop@decMonth
  1630                           
  1631                           ;program.c: 120:             decYear = rtcc_ConvertBcdToDec(bcdYear);
  1632     05B5  085D               	movf	programLoop@bcdYear,w
  1633     05B6  3182  2202  3185   	fcall	_rtcc_ConvertBcdToDec
  1634     05B9  0020               	movlb	0	; select bank0
  1635     05BA  00E2               	movwf	programLoop@decYear
  1636     05BB                     l1717:
  1637                           
  1638                           ;program.c: 121:             decCentury = bcdMonth >> 7;
  1639     05BB  0865               	movf	programLoop@bcdMonth,w
  1640     05BC  00D7               	movwf	??_programLoop
  1641     05BD  3007               	movlw	7
  1642     05BE                     u995:
  1643     05BE  36D7               	lsrf	??_programLoop,f
  1644     05BF  0B89               	decfsz	9,f
  1645     05C0  2DBE               	goto	u995
  1646     05C1  0857               	movf	??_programLoop,w
  1647     05C2  00E3               	movwf	programLoop@decCentury
  1648     05C3                     l1719:
  1649                           
  1650                           ;program.c: 123:             rtcc_LcdDisplay(day , decDate, decMonth, 20 + decCentury, d
      +                          ecYear,
  1651     05C3  0860               	movf	programLoop@decDate,w
  1652     05C4  00CB               	movwf	rtcc_LcdDisplay@date
  1653     05C5  0861               	movf	programLoop@decMonth,w
  1654     05C6  00CC               	movwf	rtcc_LcdDisplay@month
  1655     05C7  0863               	movf	programLoop@decCentury,w
  1656     05C8  3E14               	addlw	20
  1657     05C9  00CD               	movwf	rtcc_LcdDisplay@century
  1658     05CA  0862               	movf	programLoop@decYear,w
  1659     05CB  00CE               	movwf	rtcc_LcdDisplay@year
  1660     05CC  085F               	movf	programLoop@decHour,w
  1661     05CD  00CF               	movwf	rtcc_LcdDisplay@hour
  1662     05CE  085E               	movf	programLoop@decMinute,w
  1663     05CF  00D0               	movwf	rtcc_LcdDisplay@minute
  1664     05D0  0859               	movf	programLoop@decSecond,w
  1665     05D1  00D1               	movwf	rtcc_LcdDisplay@second
  1666     05D2  0864               	movf	programLoop@day,w
  1667     05D3  3186  26BE  3185   	fcall	_rtcc_LcdDisplay
  1668     05D6                     l1721:
  1669                           
  1670                           ;program.c: 127:         bcdSecondPrev = bcdSecond;
  1671     05D6  0020               	movlb	0	; select bank0
  1672     05D7  0866               	movf	programLoop@bcdSecond,w
  1673     05D8  00D8               	movwf	programLoop@bcdSecondPrev
  1674     05D9                     l1723:
  1675                           
  1676                           ;program.c: 129:         delay_ms(200);
  1677     05D9  3000               	movlw	0
  1678     05DA  00FA               	movwf	delay_ms@delay+3
  1679     05DB  3000               	movlw	0
  1680     05DC  00F9               	movwf	delay_ms@delay+2
  1681     05DD  3000               	movlw	0
  1682     05DE  00F8               	movwf	delay_ms@delay+1
  1683     05DF  30C8               	movlw	200
  1684     05E0  00F7               	movwf	delay_ms@delay
  1685     05E1  3182  22E0  3185   	fcall	_delay_ms
  1686     05E4  2D59               	goto	l1711
  1687     05E5  0008               	return
  1688     05E6                     __end_of_programLoop:
  1689                           
  1690                           	psect	text2
  1691     0202                     __ptext2:	
  1692 ;; *************** function _rtcc_ConvertBcdToDec *****************
  1693 ;; Defined at:
  1694 ;;		line 139 in file "program.c"
  1695 ;; Parameters:    Size  Location     Type
  1696 ;;  bcd             1    wreg     unsigned char 
  1697 ;; Auto vars:     Size  Location     Type
  1698 ;;  bcd             1    6[COMMON] unsigned char 
  1699 ;; Return value:  Size  Location     Type
  1700 ;;                  1    wreg      unsigned char 
  1701 ;; Registers used:
  1702 ;;		wreg, status,2, status,0, pclath, cstack
  1703 ;; Tracked objects:
  1704 ;;		On entry : 0/0
  1705 ;;		On exit  : 0/0
  1706 ;;		Unchanged: 0/0
  1707 ;; Data sizes:     COMMON   BANK0   BANK1   BANK2   BANK3   BANK4   BANK5
  1708 ;;      Params:         0       0       0       0       0       0       0
  1709 ;;      Locals:         1       0       0       0       0       0       0
  1710 ;;      Temps:          2       0       0       0       0       0       0
  1711 ;;      Totals:         3       0       0       0       0       0       0
  1712 ;;Total ram usage:        3 bytes
  1713 ;; Hardware stack levels used: 1
  1714 ;; Hardware stack levels required when called: 1
  1715 ;; This function calls:
  1716 ;;		___bmul
  1717 ;; This function is called by:
  1718 ;;		_programLoop
  1719 ;; This function uses a non-reentrant model
  1720 ;;
  1721                           
  1722     0202                     _rtcc_ConvertBcdToDec:	
  1723                           ;psect for function _rtcc_ConvertBcdToDec
  1724                           
  1725                           
  1726                           ;incstack = 0
  1727                           ; Regs used in _rtcc_ConvertBcdToDec: [wreg+status,2+status,0+pclath+cstack]
  1728                           ;rtcc_ConvertBcdToDec@bcd stored from wreg
  1729     0202  00F6               	movwf	rtcc_ConvertBcdToDec@bcd
  1730     0203                     l1697:
  1731                           
  1732                           ;program.c: 140:     return ((bcd >> 4) & 0x0F) * 10 + (bcd & 0x0F);
  1733     0203  300F               	movlw	15
  1734     0204  0576               	andwf	rtcc_ConvertBcdToDec@bcd,w
  1735     0205  00F4               	movwf	??_rtcc_ConvertBcdToDec
  1736     0206  300A               	movlw	10
  1737     0207  00F0               	movwf	___bmul@multiplicand
  1738     0208  0876               	movf	rtcc_ConvertBcdToDec@bcd,w
  1739     0209  00F5               	movwf	??_rtcc_ConvertBcdToDec+1
  1740     020A  3004               	movlw	4
  1741     020B                     u975:
  1742     020B  36F5               	lsrf	??_rtcc_ConvertBcdToDec+1,f
  1743     020C  0B89               	decfsz	9,f
  1744     020D  2A0B               	goto	u975
  1745     020E  0875               	movf	??_rtcc_ConvertBcdToDec+1,w
  1746     020F  390F               	andlw	15
  1747     0210  3182  2215  3182   	fcall	___bmul
  1748     0213  0774               	addwf	??_rtcc_ConvertBcdToDec,w
  1749     0214                     l106:
  1750     0214  0008               	return
  1751     0215                     __end_of_rtcc_ConvertBcdToDec:
  1752                           
  1753                           	psect	text3
  1754     02A3                     __ptext3:	
  1755 ;; *************** function _i2c_MasterByteReadSlave *****************
  1756 ;; Defined at:
  1757 ;;		line 494 in file "program.c"
  1758 ;; Parameters:    Size  Location     Type
  1759 ;;  addrDev         1    wreg     unsigned char 
  1760 ;;  addrReg         1    7[COMMON] unsigned char 
  1761 ;; Auto vars:     Size  Location     Type
  1762 ;;  addrDev         1    9[COMMON] unsigned char 
  1763 ;;  data            1    8[COMMON] unsigned char 
  1764 ;; Return value:  Size  Location     Type
  1765 ;;                  1    wreg      unsigned char 
  1766 ;; Registers used:
  1767 ;;		wreg, status,2, status,0, pclath, cstack
  1768 ;; Tracked objects:
  1769 ;;		On entry : 0/0
  1770 ;;		On exit  : 0/0
  1771 ;;		Unchanged: 0/0
  1772 ;; Data sizes:     COMMON   BANK0   BANK1   BANK2   BANK3   BANK4   BANK5
  1773 ;;      Params:         1       0       0       0       0       0       0
  1774 ;;      Locals:         2       0       0       0       0       0       0
  1775 ;;      Temps:          0       0       0       0       0       0       0
  1776 ;;      Totals:         3       0       0       0       0       0       0
  1777 ;;Total ram usage:        3 bytes
  1778 ;; Hardware stack levels used: 1
  1779 ;; Hardware stack levels required when called: 3
  1780 ;; This function calls:
  1781 ;;		_i2c_MasterRead
  1782 ;;		_i2c_MasterRstart
  1783 ;;		_i2c_MasterStart
  1784 ;;		_i2c_MasterStop
  1785 ;;		_i2c_MasterWrite
  1786 ;; This function is called by:
  1787 ;;		_programLoop
  1788 ;; This function uses a non-reentrant model
  1789 ;;
  1790                           
  1791     02A3                     _i2c_MasterByteReadSlave:	
  1792                           ;psect for function _i2c_MasterByteReadSlave
  1793                           
  1794                           
  1795                           ;incstack = 0
  1796                           ; Regs used in _i2c_MasterByteReadSlave: [wreg+status,2+status,0+pclath+cstack]
  1797                           ;i2c_MasterByteReadSlave@addrDev stored from wreg
  1798     02A3  00F9               	movwf	i2c_MasterByteReadSlave@addrDev
  1799     02A4                     l1677:
  1800     02A4                     l1679:
  1801                           
  1802                           ;program.c: 497:     i2c_MasterStart();
  1803     02A4  3181  21B8  3182   	fcall	_i2c_MasterStart
  1804     02A7                     l1681:
  1805                           
  1806                           ;program.c: 499:     i2c_MasterWrite((uint8_t)(addrDev << 1));
  1807     02A7  3579               	lslf	i2c_MasterByteReadSlave@addrDev,w
  1808     02A8  3181  21C3  3182   	fcall	_i2c_MasterWrite
  1809     02AB                     l1683:
  1810                           
  1811                           ;program.c: 501:     i2c_MasterWrite(addrReg);
  1812     02AB  0877               	movf	i2c_MasterByteReadSlave@addrReg,w
  1813     02AC  3181  21C3  3182   	fcall	_i2c_MasterWrite
  1814     02AF                     l1685:
  1815                           
  1816                           ;program.c: 503:     i2c_MasterRstart();
  1817     02AF  3181  21AD  3182   	fcall	_i2c_MasterRstart
  1818     02B2                     l1687:
  1819                           
  1820                           ;program.c: 505:     i2c_MasterWrite((uint8_t)((addrDev << 1) | 1));
  1821     02B2  1403               	setc
  1822     02B3  0D79               	rlf	i2c_MasterByteReadSlave@addrDev,w
  1823     02B4  3181  21C3  3182   	fcall	_i2c_MasterWrite
  1824     02B7                     l1689:
  1825                           
  1826                           ;program.c: 507:     data = i2c_MasterRead(0);
  1827     02B7  3000               	movlw	0
  1828     02B8  3181  21EF  3182   	fcall	_i2c_MasterRead
  1829     02BB  00F8               	movwf	i2c_MasterByteReadSlave@data
  1830     02BC                     l1691:
  1831                           
  1832                           ;program.c: 509:     i2c_MasterStop();
  1833     02BC  3181  21DE  3182   	fcall	_i2c_MasterStop
  1834     02BF                     l1693:
  1835                           
  1836                           ;program.c: 511:     return data;
  1837     02BF  0878               	movf	i2c_MasterByteReadSlave@data,w
  1838     02C0                     l226:
  1839     02C0  0008               	return
  1840     02C1                     __end_of_i2c_MasterByteReadSlave:
  1841                           
  1842                           	psect	text4
  1843     01C3                     __ptext4:	
  1844 ;; *************** function _i2c_MasterWrite *****************
  1845 ;; Defined at:
  1846 ;;		line 458 in file "program.c"
  1847 ;; Parameters:    Size  Location     Type
  1848 ;;  byte            1    wreg     unsigned char 
  1849 ;; Auto vars:     Size  Location     Type
  1850 ;;  byte            1    0[COMMON] unsigned char 
  1851 ;; Return value:  Size  Location     Type
  1852 ;;                  1    wreg      void 
  1853 ;; Registers used:
  1854 ;;		wreg, status,2, status,0, pclath, cstack
  1855 ;; Tracked objects:
  1856 ;;		On entry : 0/0
  1857 ;;		On exit  : 0/0
  1858 ;;		Unchanged: 0/0
  1859 ;; Data sizes:     COMMON   BANK0   BANK1   BANK2   BANK3   BANK4   BANK5
  1860 ;;      Params:         0       0       0       0       0       0       0
  1861 ;;      Locals:         1       0       0       0       0       0       0
  1862 ;;      Temps:          0       0       0       0       0       0       0
  1863 ;;      Totals:         1       0       0       0       0       0       0
  1864 ;;Total ram usage:        1 bytes
  1865 ;; Hardware stack levels used: 1
  1866 ;; Hardware stack levels required when called: 1
  1867 ;; This function calls:
  1868 ;;		_i2c_BusIdle
  1869 ;; This function is called by:
  1870 ;;		_i2c_MasterByteReadSlave
  1871 ;;		_i2c_MasterByteWriteSlave
  1872 ;; This function uses a non-reentrant model
  1873 ;;
  1874                           
  1875     01C3                     _i2c_MasterWrite:	
  1876                           ;psect for function _i2c_MasterWrite
  1877                           
  1878                           
  1879                           ;incstack = 0
  1880                           ; Regs used in _i2c_MasterWrite: [wreg+status,2+status,0+pclath+cstack]
  1881                           ;i2c_MasterWrite@byte stored from wreg
  1882     01C3  00F0               	movwf	i2c_MasterWrite@byte
  1883     01C4                     l1559:
  1884                           
  1885                           ;program.c: 459:     i2c_BusIdle();
  1886     01C4  3181  2184  3181   	fcall	_i2c_BusIdle
  1887     01C7                     l1561:
  1888                           
  1889                           ;program.c: 461:     SSPBUF = byte;
  1890     01C7  0870               	movf	i2c_MasterWrite@byte,w
  1891     01C8  0024               	movlb	4	; select bank4
  1892     01C9  0091               	movwf	17	;volatile
  1893     01CA                     l211:	
  1894                           ;program.c: 463:     while(SSPSTATbits.BF);
  1895                           
  1896     01CA  1814               	btfsc	20,0	;volatile
  1897     01CB  29CD               	goto	u851
  1898     01CC  29CE               	goto	u850
  1899     01CD                     u851:
  1900     01CD  29CA               	goto	l211
  1901     01CE                     u850:
  1902     01CE                     l214:
  1903     01CE  0008               	return
  1904     01CF                     __end_of_i2c_MasterWrite:
  1905                           
  1906                           	psect	text5
  1907     01DE                     __ptext5:	
  1908 ;; *************** function _i2c_MasterStop *****************
  1909 ;; Defined at:
  1910 ;;		line 445 in file "program.c"
  1911 ;; Parameters:    Size  Location     Type
  1912 ;;		None
  1913 ;; Auto vars:     Size  Location     Type
  1914 ;;		None
  1915 ;; Return value:  Size  Location     Type
  1916 ;;                  1    wreg      void 
  1917 ;; Registers used:
  1918 ;;		wreg, status,2, status,0, pclath, cstack
  1919 ;; Tracked objects:
  1920 ;;		On entry : 0/0
  1921 ;;		On exit  : 0/0
  1922 ;;		Unchanged: 0/0
  1923 ;; Data sizes:     COMMON   BANK0   BANK1   BANK2   BANK3   BANK4   BANK5
  1924 ;;      Params:         0       0       0       0       0       0       0
  1925 ;;      Locals:         0       0       0       0       0       0       0
  1926 ;;      Temps:          0       0       0       0       0       0       0
  1927 ;;      Totals:         0       0       0       0       0       0       0
  1928 ;;Total ram usage:        0 bytes
  1929 ;; Hardware stack levels used: 1
  1930 ;; Hardware stack levels required when called: 2
  1931 ;; This function calls:
  1932 ;;		_delay_x1o5us
  1933 ;;		_delay_x24o25us
  1934 ;;		_i2c_BusIdle
  1935 ;; This function is called by:
  1936 ;;		_i2c_MasterByteReadSlave
  1937 ;;		_i2c_MasterByteWriteSlave
  1938 ;; This function uses a non-reentrant model
  1939 ;;
  1940                           
  1941     01DE                     _i2c_MasterStop:	
  1942                           ;psect for function _i2c_MasterStop
  1943                           
  1944     01DE                     l1555:	
  1945                           ;incstack = 0
  1946                           ; Regs used in _i2c_MasterStop: [wreg+status,2+status,0+pclath+cstack]
  1947                           
  1948                           
  1949                           ;program.c: 446:     i2c_BusIdle();
  1950     01DE  3181  2184  3181   	fcall	_i2c_BusIdle
  1951     01E1                     l1557:
  1952                           
  1953                           ;program.c: 448:     SSPCON2bits.PEN = 1;
  1954     01E1  0024               	movlb	4	; select bank4
  1955     01E2  1516               	bsf	22,2	;volatile
  1956                           
  1957                           ;program.c: 450:     delay_x1o5us(7);
  1958     01E3  3007               	movlw	7
  1959     01E4  3181  21CF  3181   	fcall	_delay_x1o5us
  1960                           
  1961                           ;program.c: 455:     delay_x24o25us(60);
  1962     01E7  303C               	movlw	60
  1963     01E8  00F3               	movwf	delay_x24o25us@delay
  1964     01E9  3000               	movlw	0
  1965     01EA  00F4               	movwf	delay_x24o25us@delay+1
  1966     01EB  3182  223F  3181   	fcall	_delay_x24o25us
  1967     01EE                     l208:
  1968     01EE  0008               	return
  1969     01EF                     __end_of_i2c_MasterStop:
  1970                           
  1971                           	psect	text6
  1972     01B8                     __ptext6:	
  1973 ;; *************** function _i2c_MasterStart *****************
  1974 ;; Defined at:
  1975 ;;		line 423 in file "program.c"
  1976 ;; Parameters:    Size  Location     Type
  1977 ;;		None
  1978 ;; Auto vars:     Size  Location     Type
  1979 ;;		None
  1980 ;; Return value:  Size  Location     Type
  1981 ;;                  1    wreg      void 
  1982 ;; Registers used:
  1983 ;;		wreg, status,2, status,0, pclath, cstack
  1984 ;; Tracked objects:
  1985 ;;		On entry : 0/0
  1986 ;;		On exit  : 0/0
  1987 ;;		Unchanged: 0/0
  1988 ;; Data sizes:     COMMON   BANK0   BANK1   BANK2   BANK3   BANK4   BANK5
  1989 ;;      Params:         0       0       0       0       0       0       0
  1990 ;;      Locals:         0       0       0       0       0       0       0
  1991 ;;      Temps:          0       0       0       0       0       0       0
  1992 ;;      Totals:         0       0       0       0       0       0       0
  1993 ;;Total ram usage:        0 bytes
  1994 ;; Hardware stack levels used: 1
  1995 ;; Hardware stack levels required when called: 1
  1996 ;; This function calls:
  1997 ;;		_i2c_BusIdle
  1998 ;; This function is called by:
  1999 ;;		_i2c_MasterByteReadSlave
  2000 ;;		_i2c_MasterByteWriteSlave
  2001 ;; This function uses a non-reentrant model
  2002 ;;
  2003                           
  2004     01B8                     _i2c_MasterStart:	
  2005                           ;psect for function _i2c_MasterStart
  2006                           
  2007     01B8                     l1527:	
  2008                           ;incstack = 0
  2009                           ; Regs used in _i2c_MasterStart: [wreg+status,2+status,0+pclath+cstack]
  2010                           
  2011                           
  2012                           ;program.c: 424:     i2c_BusIdle();
  2013     01B8  3181  2184  3181   	fcall	_i2c_BusIdle
  2014     01BB                     l1529:
  2015                           
  2016                           ;program.c: 426:     SSPCON2bits.SEN = 1;
  2017     01BB  0024               	movlb	4	; select bank4
  2018     01BC  1416               	bsf	22,0	;volatile
  2019     01BD                     l1531:
  2020                           
  2021                           ;program.c: 427:     __nop();
  2022     01BD  0000               	nop
  2023     01BE                     l1533:
  2024                           
  2025                           ;program.c: 428:     __nop();
  2026     01BE  0000               	nop
  2027     01BF                     l1535:
  2028                           
  2029                           ;program.c: 429:     __nop();
  2030     01BF  0000               	nop
  2031     01C0                     l1537:
  2032                           
  2033                           ;program.c: 430:     __nop();
  2034     01C0  0000               	nop
  2035     01C1                     l1539:
  2036                           
  2037                           ;program.c: 431:     __nop();
  2038     01C1  0000               	nop
  2039     01C2                     l202:
  2040     01C2  0008               	return
  2041     01C3                     __end_of_i2c_MasterStart:
  2042                           
  2043                           	psect	text7
  2044     01AD                     __ptext7:	
  2045 ;; *************** function _i2c_MasterRstart *****************
  2046 ;; Defined at:
  2047 ;;		line 434 in file "program.c"
  2048 ;; Parameters:    Size  Location     Type
  2049 ;;		None
  2050 ;; Auto vars:     Size  Location     Type
  2051 ;;		None
  2052 ;; Return value:  Size  Location     Type
  2053 ;;                  1    wreg      void 
  2054 ;; Registers used:
  2055 ;;		wreg, status,2, status,0, pclath, cstack
  2056 ;; Tracked objects:
  2057 ;;		On entry : 0/0
  2058 ;;		On exit  : 0/0
  2059 ;;		Unchanged: 0/0
  2060 ;; Data sizes:     COMMON   BANK0   BANK1   BANK2   BANK3   BANK4   BANK5
  2061 ;;      Params:         0       0       0       0       0       0       0
  2062 ;;      Locals:         0       0       0       0       0       0       0
  2063 ;;      Temps:          0       0       0       0       0       0       0
  2064 ;;      Totals:         0       0       0       0       0       0       0
  2065 ;;Total ram usage:        0 bytes
  2066 ;; Hardware stack levels used: 1
  2067 ;; Hardware stack levels required when called: 1
  2068 ;; This function calls:
  2069 ;;		_i2c_BusIdle
  2070 ;; This function is called by:
  2071 ;;		_i2c_MasterByteReadSlave
  2072 ;; This function uses a non-reentrant model
  2073 ;;
  2074                           
  2075     01AD                     _i2c_MasterRstart:	
  2076                           ;psect for function _i2c_MasterRstart
  2077                           
  2078     01AD                     l1541:	
  2079                           ;incstack = 0
  2080                           ; Regs used in _i2c_MasterRstart: [wreg+status,2+status,0+pclath+cstack]
  2081                           
  2082                           
  2083                           ;program.c: 435:     i2c_BusIdle();
  2084     01AD  3181  2184  3181   	fcall	_i2c_BusIdle
  2085     01B0                     l1543:
  2086                           
  2087                           ;program.c: 437:     SSPCON2bits.RSEN = 1;
  2088     01B0  0024               	movlb	4	; select bank4
  2089     01B1  1496               	bsf	22,1	;volatile
  2090     01B2                     l1545:
  2091                           
  2092                           ;program.c: 438:     __nop();
  2093     01B2  0000               	nop
  2094     01B3                     l1547:
  2095                           
  2096                           ;program.c: 439:     __nop();
  2097     01B3  0000               	nop
  2098     01B4                     l1549:
  2099                           
  2100                           ;program.c: 440:     __nop();
  2101     01B4  0000               	nop
  2102     01B5                     l1551:
  2103                           
  2104                           ;program.c: 441:     __nop();
  2105     01B5  0000               	nop
  2106     01B6                     l1553:
  2107                           
  2108                           ;program.c: 442:     __nop();
  2109     01B6  0000               	nop
  2110     01B7                     l205:
  2111     01B7  0008               	return
  2112     01B8                     __end_of_i2c_MasterRstart:
  2113                           
  2114                           	psect	text8
  2115     01EF                     __ptext8:	
  2116 ;; *************** function _i2c_MasterRead *****************
  2117 ;; Defined at:
  2118 ;;		line 466 in file "program.c"
  2119 ;; Parameters:    Size  Location     Type
  2120 ;;  ack             1    wreg     unsigned char 
  2121 ;; Auto vars:     Size  Location     Type
  2122 ;;  ack             1    0[COMMON] unsigned char 
  2123 ;;  data            1    1[COMMON] unsigned char 
  2124 ;; Return value:  Size  Location     Type
  2125 ;;                  1    wreg      unsigned char 
  2126 ;; Registers used:
  2127 ;;		wreg, status,2, status,0, pclath, cstack
  2128 ;; Tracked objects:
  2129 ;;		On entry : 0/0
  2130 ;;		On exit  : 0/0
  2131 ;;		Unchanged: 0/0
  2132 ;; Data sizes:     COMMON   BANK0   BANK1   BANK2   BANK3   BANK4   BANK5
  2133 ;;      Params:         0       0       0       0       0       0       0
  2134 ;;      Locals:         2       0       0       0       0       0       0
  2135 ;;      Temps:          0       0       0       0       0       0       0
  2136 ;;      Totals:         2       0       0       0       0       0       0
  2137 ;;Total ram usage:        2 bytes
  2138 ;; Hardware stack levels used: 1
  2139 ;; Hardware stack levels required when called: 1
  2140 ;; This function calls:
  2141 ;;		_i2c_BusIdle
  2142 ;; This function is called by:
  2143 ;;		_i2c_MasterByteReadSlave
  2144 ;; This function uses a non-reentrant model
  2145 ;;
  2146                           
  2147     01EF                     _i2c_MasterRead:	
  2148                           ;psect for function _i2c_MasterRead
  2149                           
  2150                           
  2151                           ;incstack = 0
  2152                           ; Regs used in _i2c_MasterRead: [wreg+status,2+status,0+pclath+cstack]
  2153                           ;i2c_MasterRead@ack stored from wreg
  2154     01EF  00F0               	movwf	i2c_MasterRead@ack
  2155     01F0                     l1563:
  2156     01F0                     l1565:
  2157                           
  2158                           ;program.c: 469:     i2c_BusIdle();
  2159     01F0  3181  2184  3181   	fcall	_i2c_BusIdle
  2160     01F3                     l1567:
  2161                           
  2162                           ;program.c: 471:     SSPCON2bits.RCEN = 1;
  2163     01F3  0024               	movlb	4	; select bank4
  2164     01F4  1596               	bsf	22,3	;volatile
  2165     01F5                     l217:	
  2166                           ;program.c: 473:     while(!SSPSTATbits.BF);
  2167                           
  2168     01F5  1C14               	btfss	20,0	;volatile
  2169     01F6  29F8               	goto	u861
  2170     01F7  29F9               	goto	u860
  2171     01F8                     u861:
  2172     01F8  29F5               	goto	l217
  2173     01F9                     u860:
  2174     01F9                     l1569:
  2175                           
  2176                           ;program.c: 475:     data = SSPBUF;
  2177     01F9  0811               	movf	17,w	;volatile
  2178     01FA  00F1               	movwf	i2c_MasterRead@data
  2179     01FB                     l1571:
  2180                           
  2181                           ;program.c: 477:     SSPCON2bits.ACKEN = ack;
  2182     01FB  0C70               	rrf	i2c_MasterRead@ack,w
  2183     01FC  1C03               	skipc
  2184     01FD  1216               	bcf	22,4	;volatile
  2185     01FE  1803               	skipnc
  2186     01FF  1616               	bsf	22,4	;volatile
  2187     0200                     l1573:
  2188                           
  2189                           ;program.c: 479:     return data;
  2190     0200  0871               	movf	i2c_MasterRead@data,w
  2191     0201                     l220:
  2192     0201  0008               	return
  2193     0202                     __end_of_i2c_MasterRead:
  2194                           
  2195                           	psect	text9
  2196     0184                     __ptext9:	
  2197 ;; *************** function _i2c_BusIdle *****************
  2198 ;; Defined at:
  2199 ;;		line 418 in file "program.c"
  2200 ;; Parameters:    Size  Location     Type
  2201 ;;		None
  2202 ;; Auto vars:     Size  Location     Type
  2203 ;;		None
  2204 ;; Return value:  Size  Location     Type
  2205 ;;                  1    wreg      void 
  2206 ;; Registers used:
  2207 ;;		wreg, status,2
  2208 ;; Tracked objects:
  2209 ;;		On entry : 0/0
  2210 ;;		On exit  : 0/0
  2211 ;;		Unchanged: 0/0
  2212 ;; Data sizes:     COMMON   BANK0   BANK1   BANK2   BANK3   BANK4   BANK5
  2213 ;;      Params:         0       0       0       0       0       0       0
  2214 ;;      Locals:         0       0       0       0       0       0       0
  2215 ;;      Temps:          0       0       0       0       0       0       0
  2216 ;;      Totals:         0       0       0       0       0       0       0
  2217 ;;Total ram usage:        0 bytes
  2218 ;; Hardware stack levels used: 1
  2219 ;; This function calls:
  2220 ;;		Nothing
  2221 ;; This function is called by:
  2222 ;;		_i2c_MasterStart
  2223 ;;		_i2c_MasterRstart
  2224 ;;		_i2c_MasterStop
  2225 ;;		_i2c_MasterWrite
  2226 ;;		_i2c_MasterRead
  2227 ;; This function uses a non-reentrant model
  2228 ;;
  2229                           
  2230     0184                     _i2c_BusIdle:	
  2231                           ;psect for function _i2c_BusIdle
  2232                           
  2233     0184                     l1389:	
  2234                           ;incstack = 0
  2235                           ; Regs used in _i2c_BusIdle: [wreg+status,2]
  2236                           
  2237     0184                     l1391:	
  2238                           ;program.c: 419:     while(SSPCON2 & 0b00011111);
  2239                           
  2240     0184  0024               	movlb	4	; select bank4
  2241     0185  0816               	movf	22,w	;volatile
  2242     0186  391F               	andlw	31
  2243     0187  1D03               	btfss	3,2
  2244     0188  298A               	goto	u641
  2245     0189  298B               	goto	u640
  2246     018A                     u641:
  2247     018A  2984               	goto	l1391
  2248     018B                     u640:
  2249     018B                     l199:
  2250     018B  0008               	return
  2251     018C                     __end_of_i2c_BusIdle:
  2252                           
  2253                           	psect	text10
  2254     038E                     __ptext10:	
  2255 ;; *************** function _programInitialize *****************
  2256 ;; Defined at:
  2257 ;;		line 23 in file "program.c"
  2258 ;; Parameters:    Size  Location     Type
  2259 ;;		None
  2260 ;; Auto vars:     Size  Location     Type
  2261 ;;		None
  2262 ;; Return value:  Size  Location     Type
  2263 ;;                  1    wreg      void 
  2264 ;; Registers used:
  2265 ;;		wreg, fsr0l, fsr0h, fsr1l, fsr1h, status,2, status,0, pclath, cstack
  2266 ;; Tracked objects:
  2267 ;;		On entry : 0/0
  2268 ;;		On exit  : 0/0
  2269 ;;		Unchanged: 0/0
  2270 ;; Data sizes:     COMMON   BANK0   BANK1   BANK2   BANK3   BANK4   BANK5
  2271 ;;      Params:         0       0       0       0       0       0       0
  2272 ;;      Locals:         0       0       0       0       0       0       0
  2273 ;;      Temps:          0       0       0       0       0       0       0
  2274 ;;      Totals:         0       0       0       0       0       0       0
  2275 ;;Total ram usage:        0 bytes
  2276 ;; Hardware stack levels used: 1
  2277 ;; Hardware stack levels required when called: 8
  2278 ;; This function calls:
  2279 ;;		_i2c_Initialize
  2280 ;;		_lcd_Initialize
  2281 ;;		_rtcc_LcdDisplay
  2282 ;; This function is called by:
  2283 ;;		_main
  2284 ;; This function uses a non-reentrant model
  2285 ;;
  2286                           
  2287     038E                     _programInitialize:	
  2288                           ;psect for function _programInitialize
  2289                           
  2290     038E                     l1701:	
  2291                           ;incstack = 0
  2292                           ; Regs used in _programInitialize: [wreg-fsr1h+status,2+status,0+pclath+cstack]
  2293                           
  2294                           
  2295                           ;program.c: 24:     TRISBbits.TRISB6 = 0;
  2296     038E  0021               	movlb	1	; select bank1
  2297     038F  130D               	bcf	13,6	;volatile
  2298                           
  2299                           ;program.c: 25:     TRISBbits.TRISB7 = 0;
  2300     0390  138D               	bcf	13,7	;volatile
  2301                           
  2302                           ;program.c: 27:     LATBbits.LATB7 = 0;
  2303     0391  0022               	movlb	2	; select bank2
  2304     0392  138D               	bcf	13,7	;volatile
  2305                           
  2306                           ;program.c: 28:     LATBbits.LATB6 = 0;
  2307     0393  130D               	bcf	13,6	;volatile
  2308                           
  2309                           ;program.c: 30:     TRISBbits.TRISB5 = 0;
  2310     0394  0021               	movlb	1	; select bank1
  2311     0395  128D               	bcf	13,5	;volatile
  2312                           
  2313                           ;program.c: 31:     TRISBbits.TRISB4 = 0;
  2314     0396  120D               	bcf	13,4	;volatile
  2315                           
  2316                           ;program.c: 32:     TRISBbits.TRISB3 = 0;
  2317     0397  118D               	bcf	13,3	;volatile
  2318                           
  2319                           ;program.c: 33:     TRISBbits.TRISB2 = 0;
  2320     0398  110D               	bcf	13,2	;volatile
  2321                           
  2322                           ;program.c: 34:     TRISBbits.TRISB1 = 0;
  2323     0399  108D               	bcf	13,1	;volatile
  2324                           
  2325                           ;program.c: 35:     TRISCbits.TRISC5 = 0;
  2326     039A  128E               	bcf	14,5	;volatile
  2327                           
  2328                           ;program.c: 37:     ANSELBbits.ANSB5 = 0;
  2329     039B  0023               	movlb	3	; select bank3
  2330     039C  128D               	bcf	13,5	;volatile
  2331                           
  2332                           ;program.c: 38:     ANSELBbits.ANSB4 = 0;
  2333     039D  120D               	bcf	13,4	;volatile
  2334                           
  2335                           ;program.c: 39:     ANSELBbits.ANSB3 = 0;
  2336     039E  118D               	bcf	13,3	;volatile
  2337                           
  2338                           ;program.c: 40:     ANSELBbits.ANSB2 = 0;
  2339     039F  110D               	bcf	13,2	;volatile
  2340                           
  2341                           ;program.c: 41:     ANSELBbits.ANSB1 = 0;
  2342     03A0  108D               	bcf	13,1	;volatile
  2343                           
  2344                           ;program.c: 43:     LATBbits.LATB5 = 0;
  2345     03A1  0022               	movlb	2	; select bank2
  2346     03A2  128D               	bcf	13,5	;volatile
  2347                           
  2348                           ;program.c: 44:     LATBbits.LATB4 = 0;
  2349     03A3  120D               	bcf	13,4	;volatile
  2350                           
  2351                           ;program.c: 45:     LATBbits.LATB3 = 0;
  2352     03A4  118D               	bcf	13,3	;volatile
  2353                           
  2354                           ;program.c: 46:     LATBbits.LATB2 = 0;
  2355     03A5  110D               	bcf	13,2	;volatile
  2356                           
  2357                           ;program.c: 47:     LATBbits.LATB1 = 0;
  2358     03A6  108D               	bcf	13,1	;volatile
  2359                           
  2360                           ;program.c: 48:     LATCbits.LATC5 = 0;
  2361     03A7  128E               	bcf	14,5	;volatile
  2362                           
  2363                           ;program.c: 50:     TRISAbits.TRISA1 = 1;
  2364     03A8  0021               	movlb	1	; select bank1
  2365     03A9  148C               	bsf	12,1	;volatile
  2366                           
  2367                           ;program.c: 51:     TRISAbits.TRISA2 = 1;
  2368     03AA  150C               	bsf	12,2	;volatile
  2369                           
  2370                           ;program.c: 52:     TRISAbits.TRISA3 = 1;
  2371     03AB  158C               	bsf	12,3	;volatile
  2372                           
  2373                           ;program.c: 53:     TRISAbits.TRISA4 = 1;
  2374     03AC  160C               	bsf	12,4	;volatile
  2375                           
  2376                           ;program.c: 55:     ANSELAbits.ANSA1 = 0;
  2377     03AD  0023               	movlb	3	; select bank3
  2378     03AE  108C               	bcf	12,1	;volatile
  2379                           
  2380                           ;program.c: 56:     ANSELAbits.ANSA2 = 0;
  2381     03AF  110C               	bcf	12,2	;volatile
  2382                           
  2383                           ;program.c: 57:     ANSELAbits.ANSA3 = 0;
  2384     03B0  118C               	bcf	12,3	;volatile
  2385                           
  2386                           ;program.c: 58:     ANSELAbits.ANSA4 = 0;
  2387     03B1  120C               	bcf	12,4	;volatile
  2388                           
  2389                           ;program.c: 60:     TRISAbits.TRISA5 = 1;
  2390     03B2  0021               	movlb	1	; select bank1
  2391     03B3  168C               	bsf	12,5	;volatile
  2392                           
  2393                           ;program.c: 61:     ANSELAbits.ANSA5 = 0;
  2394     03B4  0023               	movlb	3	; select bank3
  2395     03B5  128C               	bcf	12,5	;volatile
  2396                           
  2397                           ;program.c: 64:     TRISCbits.TRISC3 = 1;
  2398     03B6  0021               	movlb	1	; select bank1
  2399     03B7  158E               	bsf	14,3	;volatile
  2400                           
  2401                           ;program.c: 65:     APFCONbits.SCKSEL = 0;
  2402     03B8  0022               	movlb	2	; select bank2
  2403     03B9  121D               	bcf	29,4	;volatile
  2404                           
  2405                           ;program.c: 68:     TRISCbits.TRISC4 = 1;
  2406     03BA  0021               	movlb	1	; select bank1
  2407     03BB  160E               	bsf	14,4	;volatile
  2408                           
  2409                           ;program.c: 69:     APFCONbits.SDISEL = 0;
  2410     03BC  0022               	movlb	2	; select bank2
  2411     03BD  119D               	bcf	29,3	;volatile
  2412     03BE                     l1703:
  2413                           
  2414                           ;program.c: 71:     lcd_Initialize();
  2415     03BE  3183  230D  3183   	fcall	_lcd_Initialize
  2416     03C1                     l1705:
  2417                           
  2418                           ;program.c: 73:     rtcc_LcdDisplay(0, 0, 0, 0, 0, 0, 0, 0);
  2419     03C1  0020               	movlb	0	; select bank0
  2420     03C2  01CB               	clrf	rtcc_LcdDisplay@date
  2421     03C3  01CC               	clrf	rtcc_LcdDisplay@month
  2422     03C4  01CD               	clrf	rtcc_LcdDisplay@century
  2423     03C5  01CE               	clrf	rtcc_LcdDisplay@year
  2424     03C6  01CF               	clrf	rtcc_LcdDisplay@hour
  2425     03C7  01D0               	clrf	rtcc_LcdDisplay@minute
  2426     03C8  01D1               	clrf	rtcc_LcdDisplay@second
  2427     03C9  3000               	movlw	0
  2428     03CA  3186  26BE  3183   	fcall	_rtcc_LcdDisplay
  2429     03CD                     l1707:
  2430                           
  2431                           ;program.c: 75:     i2c_Initialize(32000000, 1200);
  2432     03CD  3001               	movlw	1
  2433     03CE  0020               	movlb	0	; select bank0
  2434     03CF  00A3               	movwf	i2c_Initialize@fosc+3
  2435     03D0  30E8               	movlw	232
  2436     03D1  00A2               	movwf	i2c_Initialize@fosc+2
  2437     03D2  3048               	movlw	72
  2438     03D3  00A1               	movwf	i2c_Initialize@fosc+1
  2439     03D4  3000               	movlw	0
  2440     03D5  00A0               	movwf	i2c_Initialize@fosc
  2441     03D6  30B0               	movlw	176
  2442     03D7  00A4               	movwf	i2c_Initialize@baudrate
  2443     03D8  3004               	movlw	4
  2444     03D9  00A5               	movwf	i2c_Initialize@baudrate+1
  2445     03DA  3183  2340  3183   	fcall	_i2c_Initialize
  2446     03DD                     l93:
  2447     03DD  0008               	return
  2448     03DE                     __end_of_programInitialize:
  2449                           
  2450                           	psect	text11
  2451     06BE                     __ptext11:	
  2452 ;; *************** function _rtcc_LcdDisplay *****************
  2453 ;; Defined at:
  2454 ;;		line 163 in file "program.c"
  2455 ;; Parameters:    Size  Location     Type
  2456 ;;  day             1    wreg     unsigned char 
  2457 ;;  date            1   43[BANK0 ] unsigned char 
  2458 ;;  month           1   44[BANK0 ] unsigned char 
  2459 ;;  century         1   45[BANK0 ] unsigned char 
  2460 ;;  year            1   46[BANK0 ] unsigned char 
  2461 ;;  hour            1   47[BANK0 ] unsigned char 
  2462 ;;  minute          1   48[BANK0 ] unsigned char 
  2463 ;;  second          1   49[BANK0 ] unsigned char 
  2464 ;; Auto vars:     Size  Location     Type
  2465 ;;  day             1   54[BANK0 ] unsigned char 
  2466 ;; Return value:  Size  Location     Type
  2467 ;;                  1    wreg      void 
  2468 ;; Registers used:
  2469 ;;		wreg, fsr0l, fsr0h, fsr1l, fsr1h, status,2, status,0, pclath, cstack
  2470 ;; Tracked objects:
  2471 ;;		On entry : 0/0
  2472 ;;		On exit  : 0/0
  2473 ;;		Unchanged: 0/0
  2474 ;; Data sizes:     COMMON   BANK0   BANK1   BANK2   BANK3   BANK4   BANK5
  2475 ;;      Params:         0       7       0       0       0       0       0
  2476 ;;      Locals:         0       1       0       0       0       0       0
  2477 ;;      Temps:          0       4       0       0       0       0       0
  2478 ;;      Totals:         0      12       0       0       0       0       0
  2479 ;;Total ram usage:       12 bytes
  2480 ;; Hardware stack levels used: 1
  2481 ;; Hardware stack levels required when called: 7
  2482 ;; This function calls:
  2483 ;;		_lcd_Goto
  2484 ;;		_lcd_PrintChar
  2485 ;;		_lcd_PrintDigitInt32
  2486 ;;		_lcd_PrintString
  2487 ;; This function is called by:
  2488 ;;		_programInitialize
  2489 ;;		_programLoop
  2490 ;; This function uses a non-reentrant model
  2491 ;;
  2492                           
  2493     06BE                     _rtcc_LcdDisplay:	
  2494                           ;psect for function _rtcc_LcdDisplay
  2495                           
  2496                           
  2497                           ;incstack = 0
  2498                           ; Regs used in _rtcc_LcdDisplay: [wreg-fsr1h+status,2+status,0+pclath+cstack]
  2499                           ;rtcc_LcdDisplay@day stored from wreg
  2500     06BE  0020               	movlb	0	; select bank0
  2501     06BF  00D6               	movwf	rtcc_LcdDisplay@day
  2502     06C0                     l1603:
  2503                           
  2504                           ;program.c: 163: void rtcc_LcdDisplay(uint8_t day, uint8_t date,;program.c: 164:        
      +                           uint8_t month, uint8_t century, uint8_t year,;program.c: 165:         uint8_t hour, uin
      +                          t8_t minute, uint8_t second) {;program.c: 166:     lcd_Goto(0, 0);
  2505     06C0  01F7               	clrf	lcd_Goto@x
  2506     06C1  3000               	movlw	0
  2507     06C2  3182  2286  3186   	fcall	_lcd_Goto
  2508                           
  2509                           ;program.c: 167:     lcd_PrintString("I2C RTCC");
  2510     06C5  3000               	movlw	low (STR_1| (0+32768))
  2511     06C6  00F7               	movwf	lcd_PrintString@string
  2512     06C7  3088               	movlw	high (STR_1| (0+32768))
  2513     06C8  00F8               	movwf	lcd_PrintString@string+1
  2514     06C9  3182  2255  3186   	fcall	_lcd_PrintString
  2515                           
  2516                           ;program.c: 169:     lcd_Goto(0, 11);
  2517     06CC  300B               	movlw	11
  2518     06CD  00F7               	movwf	lcd_Goto@x
  2519     06CE  3000               	movlw	0
  2520     06CF  3182  2286  3186   	fcall	_lcd_Goto
  2521     06D2                     l1605:
  2522                           
  2523                           ;program.c: 170:     lcd_PrintDigitInt32(date, 2, 0, 1);
  2524     06D2  0020               	movlb	0	; select bank0
  2525     06D3  084B               	movf	rtcc_LcdDisplay@date,w
  2526     06D4  00D2               	movwf	??_rtcc_LcdDisplay
  2527     06D5  01D3               	clrf	??_rtcc_LcdDisplay+1
  2528     06D6  01D4               	clrf	??_rtcc_LcdDisplay+2
  2529     06D7  01D5               	clrf	??_rtcc_LcdDisplay+3
  2530     06D8  0855               	movf	??_rtcc_LcdDisplay+3,w
  2531     06D9  00A9               	movwf	lcd_PrintDigitInt32@number+3
  2532     06DA  0854               	movf	??_rtcc_LcdDisplay+2,w
  2533     06DB  00A8               	movwf	lcd_PrintDigitInt32@number+2
  2534     06DC  0853               	movf	??_rtcc_LcdDisplay+1,w
  2535     06DD  00A7               	movwf	lcd_PrintDigitInt32@number+1
  2536     06DE  0852               	movf	??_rtcc_LcdDisplay,w
  2537     06DF  00A6               	movwf	lcd_PrintDigitInt32@number
  2538     06E0  3002               	movlw	2
  2539     06E1  00AA               	movwf	lcd_PrintDigitInt32@noDigit
  2540     06E2  01AB               	clrf	lcd_PrintDigitInt32@enSign
  2541     06E3  01AC               	clrf	lcd_PrintDigitInt32@enZero
  2542     06E4  0AAC               	incf	lcd_PrintDigitInt32@enZero,f
  2543     06E5  3185  25E6  3186   	fcall	_lcd_PrintDigitInt32
  2544     06E8                     l1607:
  2545                           
  2546                           ;program.c: 171:     lcd_PrintChar('/');
  2547     06E8  302F               	movlw	47
  2548     06E9  3181  21A2  3186   	fcall	_lcd_PrintChar
  2549     06EC                     l1609:
  2550                           
  2551                           ;program.c: 173:     lcd_Goto(0, 14);
  2552     06EC  300E               	movlw	14
  2553     06ED  00F7               	movwf	lcd_Goto@x
  2554     06EE  3000               	movlw	0
  2555     06EF  3182  2286  3186   	fcall	_lcd_Goto
  2556     06F2                     l1611:
  2557                           
  2558                           ;program.c: 174:     lcd_PrintDigitInt32(month, 2, 0, 1);
  2559     06F2  0020               	movlb	0	; select bank0
  2560     06F3  084C               	movf	rtcc_LcdDisplay@month,w
  2561     06F4  00D2               	movwf	??_rtcc_LcdDisplay
  2562     06F5  01D3               	clrf	??_rtcc_LcdDisplay+1
  2563     06F6  01D4               	clrf	??_rtcc_LcdDisplay+2
  2564     06F7  01D5               	clrf	??_rtcc_LcdDisplay+3
  2565     06F8  0855               	movf	??_rtcc_LcdDisplay+3,w
  2566     06F9  00A9               	movwf	lcd_PrintDigitInt32@number+3
  2567     06FA  0854               	movf	??_rtcc_LcdDisplay+2,w
  2568     06FB  00A8               	movwf	lcd_PrintDigitInt32@number+2
  2569     06FC  0853               	movf	??_rtcc_LcdDisplay+1,w
  2570     06FD  00A7               	movwf	lcd_PrintDigitInt32@number+1
  2571     06FE  0852               	movf	??_rtcc_LcdDisplay,w
  2572     06FF  00A6               	movwf	lcd_PrintDigitInt32@number
  2573     0700  3002               	movlw	2
  2574     0701  00AA               	movwf	lcd_PrintDigitInt32@noDigit
  2575     0702  01AB               	clrf	lcd_PrintDigitInt32@enSign
  2576     0703  01AC               	clrf	lcd_PrintDigitInt32@enZero
  2577     0704  0AAC               	incf	lcd_PrintDigitInt32@enZero,f
  2578     0705  3185  25E6  3186   	fcall	_lcd_PrintDigitInt32
  2579     0708                     l1613:
  2580                           
  2581                           ;program.c: 176:     lcd_Goto(1, 12);
  2582     0708  300C               	movlw	12
  2583     0709  00F7               	movwf	lcd_Goto@x
  2584     070A  3001               	movlw	1
  2585     070B  3182  2286  3186   	fcall	_lcd_Goto
  2586     070E                     l1615:
  2587                           
  2588                           ;program.c: 177:     lcd_PrintDigitInt32(century, 2, 0, 1);
  2589     070E  0020               	movlb	0	; select bank0
  2590     070F  084D               	movf	rtcc_LcdDisplay@century,w
  2591     0710  00D2               	movwf	??_rtcc_LcdDisplay
  2592     0711  01D3               	clrf	??_rtcc_LcdDisplay+1
  2593     0712  01D4               	clrf	??_rtcc_LcdDisplay+2
  2594     0713  01D5               	clrf	??_rtcc_LcdDisplay+3
  2595     0714  0855               	movf	??_rtcc_LcdDisplay+3,w
  2596     0715  00A9               	movwf	lcd_PrintDigitInt32@number+3
  2597     0716  0854               	movf	??_rtcc_LcdDisplay+2,w
  2598     0717  00A8               	movwf	lcd_PrintDigitInt32@number+2
  2599     0718  0853               	movf	??_rtcc_LcdDisplay+1,w
  2600     0719  00A7               	movwf	lcd_PrintDigitInt32@number+1
  2601     071A  0852               	movf	??_rtcc_LcdDisplay,w
  2602     071B  00A6               	movwf	lcd_PrintDigitInt32@number
  2603     071C  3002               	movlw	2
  2604     071D  00AA               	movwf	lcd_PrintDigitInt32@noDigit
  2605     071E  01AB               	clrf	lcd_PrintDigitInt32@enSign
  2606     071F  01AC               	clrf	lcd_PrintDigitInt32@enZero
  2607     0720  0AAC               	incf	lcd_PrintDigitInt32@enZero,f
  2608     0721  3185  25E6  3186   	fcall	_lcd_PrintDigitInt32
  2609     0724                     l1617:
  2610                           
  2611                           ;program.c: 179:     lcd_Goto(1, 14);
  2612     0724  300E               	movlw	14
  2613     0725  00F7               	movwf	lcd_Goto@x
  2614     0726  3001               	movlw	1
  2615     0727  3182  2286  3186   	fcall	_lcd_Goto
  2616     072A                     l1619:
  2617                           
  2618                           ;program.c: 180:     lcd_PrintDigitInt32(year, 2, 0, 1);
  2619     072A  0020               	movlb	0	; select bank0
  2620     072B  084E               	movf	rtcc_LcdDisplay@year,w
  2621     072C  00D2               	movwf	??_rtcc_LcdDisplay
  2622     072D  01D3               	clrf	??_rtcc_LcdDisplay+1
  2623     072E  01D4               	clrf	??_rtcc_LcdDisplay+2
  2624     072F  01D5               	clrf	??_rtcc_LcdDisplay+3
  2625     0730  0855               	movf	??_rtcc_LcdDisplay+3,w
  2626     0731  00A9               	movwf	lcd_PrintDigitInt32@number+3
  2627     0732  0854               	movf	??_rtcc_LcdDisplay+2,w
  2628     0733  00A8               	movwf	lcd_PrintDigitInt32@number+2
  2629     0734  0853               	movf	??_rtcc_LcdDisplay+1,w
  2630     0735  00A7               	movwf	lcd_PrintDigitInt32@number+1
  2631     0736  0852               	movf	??_rtcc_LcdDisplay,w
  2632     0737  00A6               	movwf	lcd_PrintDigitInt32@number
  2633     0738  3002               	movlw	2
  2634     0739  00AA               	movwf	lcd_PrintDigitInt32@noDigit
  2635     073A  01AB               	clrf	lcd_PrintDigitInt32@enSign
  2636     073B  01AC               	clrf	lcd_PrintDigitInt32@enZero
  2637     073C  0AAC               	incf	lcd_PrintDigitInt32@enZero,f
  2638     073D  3185  25E6  3186   	fcall	_lcd_PrintDigitInt32
  2639     0740                     l1621:
  2640                           
  2641                           ;program.c: 182:     lcd_Goto(1, 0);
  2642     0740  01F7               	clrf	lcd_Goto@x
  2643     0741  3001               	movlw	1
  2644     0742  3182  2286  3186   	fcall	_lcd_Goto
  2645     0745                     l1623:
  2646                           
  2647                           ;program.c: 183:     lcd_PrintDigitInt32(hour, 2, 0, 1);
  2648     0745  0020               	movlb	0	; select bank0
  2649     0746  084F               	movf	rtcc_LcdDisplay@hour,w
  2650     0747  00D2               	movwf	??_rtcc_LcdDisplay
  2651     0748  01D3               	clrf	??_rtcc_LcdDisplay+1
  2652     0749  01D4               	clrf	??_rtcc_LcdDisplay+2
  2653     074A  01D5               	clrf	??_rtcc_LcdDisplay+3
  2654     074B  0855               	movf	??_rtcc_LcdDisplay+3,w
  2655     074C  00A9               	movwf	lcd_PrintDigitInt32@number+3
  2656     074D  0854               	movf	??_rtcc_LcdDisplay+2,w
  2657     074E  00A8               	movwf	lcd_PrintDigitInt32@number+2
  2658     074F  0853               	movf	??_rtcc_LcdDisplay+1,w
  2659     0750  00A7               	movwf	lcd_PrintDigitInt32@number+1
  2660     0751  0852               	movf	??_rtcc_LcdDisplay,w
  2661     0752  00A6               	movwf	lcd_PrintDigitInt32@number
  2662     0753  3002               	movlw	2
  2663     0754  00AA               	movwf	lcd_PrintDigitInt32@noDigit
  2664     0755  01AB               	clrf	lcd_PrintDigitInt32@enSign
  2665     0756  01AC               	clrf	lcd_PrintDigitInt32@enZero
  2666     0757  0AAC               	incf	lcd_PrintDigitInt32@enZero,f
  2667     0758  3185  25E6  3186   	fcall	_lcd_PrintDigitInt32
  2668     075B                     l1625:
  2669                           
  2670                           ;program.c: 184:     lcd_PrintChar(':');
  2671     075B  303A               	movlw	58
  2672     075C  3181  21A2  3186   	fcall	_lcd_PrintChar
  2673     075F                     l1627:
  2674                           
  2675                           ;program.c: 186:     lcd_Goto(1, 3);
  2676     075F  3003               	movlw	3
  2677     0760  00F7               	movwf	lcd_Goto@x
  2678     0761  3001               	movlw	1
  2679     0762  3182  2286  3186   	fcall	_lcd_Goto
  2680                           
  2681                           ;program.c: 187:     lcd_PrintDigitInt32(minute, 2, 0, 1);
  2682     0765  0020               	movlb	0	; select bank0
  2683     0766  0850               	movf	rtcc_LcdDisplay@minute,w
  2684     0767  00D2               	movwf	??_rtcc_LcdDisplay
  2685     0768  01D3               	clrf	??_rtcc_LcdDisplay+1
  2686     0769  01D4               	clrf	??_rtcc_LcdDisplay+2
  2687     076A  01D5               	clrf	??_rtcc_LcdDisplay+3
  2688     076B  0855               	movf	??_rtcc_LcdDisplay+3,w
  2689     076C  00A9               	movwf	lcd_PrintDigitInt32@number+3
  2690     076D  0854               	movf	??_rtcc_LcdDisplay+2,w
  2691     076E  00A8               	movwf	lcd_PrintDigitInt32@number+2
  2692     076F  0853               	movf	??_rtcc_LcdDisplay+1,w
  2693     0770  00A7               	movwf	lcd_PrintDigitInt32@number+1
  2694     0771  0852               	movf	??_rtcc_LcdDisplay,w
  2695     0772  00A6               	movwf	lcd_PrintDigitInt32@number
  2696     0773  3002               	movlw	2
  2697     0774  00AA               	movwf	lcd_PrintDigitInt32@noDigit
  2698     0775  01AB               	clrf	lcd_PrintDigitInt32@enSign
  2699     0776  01AC               	clrf	lcd_PrintDigitInt32@enZero
  2700     0777  0AAC               	incf	lcd_PrintDigitInt32@enZero,f
  2701     0778  3185  25E6  3186   	fcall	_lcd_PrintDigitInt32
  2702     077B                     l1629:
  2703                           
  2704                           ;program.c: 188:     lcd_PrintChar(':');
  2705     077B  303A               	movlw	58
  2706     077C  3181  21A2  3186   	fcall	_lcd_PrintChar
  2707     077F                     l1631:
  2708                           
  2709                           ;program.c: 190:     lcd_Goto(1, 6);
  2710     077F  3006               	movlw	6
  2711     0780  00F7               	movwf	lcd_Goto@x
  2712     0781  3001               	movlw	1
  2713     0782  3182  2286  3186   	fcall	_lcd_Goto
  2714     0785                     l1633:
  2715                           
  2716                           ;program.c: 191:     lcd_PrintDigitInt32(second, 2, 0, 1);
  2717     0785  0020               	movlb	0	; select bank0
  2718     0786  0851               	movf	rtcc_LcdDisplay@second,w
  2719     0787  00D2               	movwf	??_rtcc_LcdDisplay
  2720     0788  01D3               	clrf	??_rtcc_LcdDisplay+1
  2721     0789  01D4               	clrf	??_rtcc_LcdDisplay+2
  2722     078A  01D5               	clrf	??_rtcc_LcdDisplay+3
  2723     078B  0855               	movf	??_rtcc_LcdDisplay+3,w
  2724     078C  00A9               	movwf	lcd_PrintDigitInt32@number+3
  2725     078D  0854               	movf	??_rtcc_LcdDisplay+2,w
  2726     078E  00A8               	movwf	lcd_PrintDigitInt32@number+2
  2727     078F  0853               	movf	??_rtcc_LcdDisplay+1,w
  2728     0790  00A7               	movwf	lcd_PrintDigitInt32@number+1
  2729     0791  0852               	movf	??_rtcc_LcdDisplay,w
  2730     0792  00A6               	movwf	lcd_PrintDigitInt32@number
  2731     0793  3002               	movlw	2
  2732     0794  00AA               	movwf	lcd_PrintDigitInt32@noDigit
  2733     0795  01AB               	clrf	lcd_PrintDigitInt32@enSign
  2734     0796  01AC               	clrf	lcd_PrintDigitInt32@enZero
  2735     0797  0AAC               	incf	lcd_PrintDigitInt32@enZero,f
  2736     0798  3185  25E6  3186   	fcall	_lcd_PrintDigitInt32
  2737     079B                     l1635:
  2738                           
  2739                           ;program.c: 193:     lcd_Goto(1, 9);
  2740     079B  3009               	movlw	9
  2741     079C  00F7               	movwf	lcd_Goto@x
  2742     079D  3001               	movlw	1
  2743     079E  3182  2286  3186   	fcall	_lcd_Goto
  2744                           
  2745                           ;program.c: 194:     switch(day) {
  2746     07A1  2FE2               	goto	l1655
  2747     07A2                     l1637:
  2748                           
  2749                           ;program.c: 196:             lcd_PrintString("Su");
  2750     07A2  301B               	movlw	low (STR_2| (0+32768))
  2751     07A3  00F7               	movwf	lcd_PrintString@string
  2752     07A4  3088               	movlw	high (STR_2| (0+32768))
  2753     07A5  00F8               	movwf	lcd_PrintString@string+1
  2754     07A6  3182  2255  3186   	fcall	_lcd_PrintString
  2755                           
  2756                           ;program.c: 197:             break;
  2757     07A9  2FFA               	goto	l125
  2758     07AA                     l1639:
  2759                           
  2760                           ;program.c: 200:             lcd_PrintString("Mo");
  2761     07AA  3015               	movlw	low (STR_3| (0+32768))
  2762     07AB  00F7               	movwf	lcd_PrintString@string
  2763     07AC  3088               	movlw	high (STR_3| (0+32768))
  2764     07AD  00F8               	movwf	lcd_PrintString@string+1
  2765     07AE  3182  2255  3186   	fcall	_lcd_PrintString
  2766                           
  2767                           ;program.c: 201:             break;
  2768     07B1  2FFA               	goto	l125
  2769     07B2                     l1641:
  2770                           
  2771                           ;program.c: 204:             lcd_PrintString("Tu");
  2772     07B2  301E               	movlw	low (STR_4| (0+32768))
  2773     07B3  00F7               	movwf	lcd_PrintString@string
  2774     07B4  3088               	movlw	high (STR_4| (0+32768))
  2775     07B5  00F8               	movwf	lcd_PrintString@string+1
  2776     07B6  3182  2255  3186   	fcall	_lcd_PrintString
  2777                           
  2778                           ;program.c: 205:             break;
  2779     07B9  2FFA               	goto	l125
  2780     07BA                     l1643:
  2781                           
  2782                           ;program.c: 208:             lcd_PrintString("We");
  2783     07BA  300F               	movlw	low (STR_5| (0+32768))
  2784     07BB  00F7               	movwf	lcd_PrintString@string
  2785     07BC  3088               	movlw	high (STR_5| (0+32768))
  2786     07BD  00F8               	movwf	lcd_PrintString@string+1
  2787     07BE  3182  2255  3186   	fcall	_lcd_PrintString
  2788                           
  2789                           ;program.c: 209:             break;
  2790     07C1  2FFA               	goto	l125
  2791     07C2                     l1645:
  2792                           
  2793                           ;program.c: 212:             lcd_PrintString("Th");
  2794     07C2  3012               	movlw	low (STR_6| (0+32768))
  2795     07C3  00F7               	movwf	lcd_PrintString@string
  2796     07C4  3088               	movlw	high (STR_6| (0+32768))
  2797     07C5  00F8               	movwf	lcd_PrintString@string+1
  2798     07C6  3182  2255  3186   	fcall	_lcd_PrintString
  2799                           
  2800                           ;program.c: 213:             break;
  2801     07C9  2FFA               	goto	l125
  2802     07CA                     l1647:
  2803                           
  2804                           ;program.c: 216:             lcd_PrintString("Fr");
  2805     07CA  3018               	movlw	low (STR_7| (0+32768))
  2806     07CB  00F7               	movwf	lcd_PrintString@string
  2807     07CC  3088               	movlw	high (STR_7| (0+32768))
  2808     07CD  00F8               	movwf	lcd_PrintString@string+1
  2809     07CE  3182  2255  3186   	fcall	_lcd_PrintString
  2810                           
  2811                           ;program.c: 217:             break;
  2812     07D1  2FFA               	goto	l125
  2813     07D2                     l1649:
  2814                           
  2815                           ;program.c: 220:             lcd_PrintString("Sa");
  2816     07D2  3009               	movlw	low (STR_8| (0+32768))
  2817     07D3  00F7               	movwf	lcd_PrintString@string
  2818     07D4  3088               	movlw	high (STR_8| (0+32768))
  2819     07D5  00F8               	movwf	lcd_PrintString@string+1
  2820     07D6  3182  2255  3186   	fcall	_lcd_PrintString
  2821                           
  2822                           ;program.c: 221:             break;
  2823     07D9  2FFA               	goto	l125
  2824     07DA                     l1651:
  2825                           
  2826                           ;program.c: 224:             lcd_PrintString("Dd");
  2827     07DA  300C               	movlw	low (STR_9| (0+32768))
  2828     07DB  00F7               	movwf	lcd_PrintString@string
  2829     07DC  3088               	movlw	high (STR_9| (0+32768))
  2830     07DD  00F8               	movwf	lcd_PrintString@string+1
  2831     07DE  3182  2255  3186   	fcall	_lcd_PrintString
  2832                           
  2833                           ;program.c: 225:             break;
  2834     07E1  2FFA               	goto	l125
  2835     07E2                     l1655:
  2836     07E2  0020               	movlb	0	; select bank0
  2837     07E3  0856               	movf	rtcc_LcdDisplay@day,w
  2838                           
  2839                           ; Switch size 1, requested type "simple"
  2840                           ; Number of cases is 7, Range of values is 1 to 7
  2841                           ; switch strategies available:
  2842                           ; Name         Instructions Cycles
  2843                           ; simple_byte           22    12 (average)
  2844                           ; direct_byte           23     9 (fixed)
  2845                           ; jumptable            263     9 (fixed)
  2846                           ;	Chosen strategy is simple_byte
  2847     07E4  3A01               	xorlw	1	; case 1
  2848     07E5  1903               	skipnz
  2849     07E6  2FA2               	goto	l1637
  2850     07E7  3A03               	xorlw	3	; case 2
  2851     07E8  1903               	skipnz
  2852     07E9  2FAA               	goto	l1639
  2853     07EA  3A01               	xorlw	1	; case 3
  2854     07EB  1903               	skipnz
  2855     07EC  2FB2               	goto	l1641
  2856     07ED  3A07               	xorlw	7	; case 4
  2857     07EE  1903               	skipnz
  2858     07EF  2FBA               	goto	l1643
  2859     07F0  3A01               	xorlw	1	; case 5
  2860     07F1  1903               	skipnz
  2861     07F2  2FC2               	goto	l1645
  2862     07F3  3A03               	xorlw	3	; case 6
  2863     07F4  1903               	skipnz
  2864     07F5  2FCA               	goto	l1647
  2865     07F6  3A01               	xorlw	1	; case 7
  2866     07F7  1903               	skipnz
  2867     07F8  2FD2               	goto	l1649
  2868     07F9  2FDA               	goto	l1651
  2869     07FA                     l125:
  2870     07FA  0008               	return
  2871     07FB                     __end_of_rtcc_LcdDisplay:
  2872                           
  2873                           	psect	text12
  2874     05E6                     __ptext12:	
  2875 ;; *************** function _lcd_PrintDigitInt32 *****************
  2876 ;; Defined at:
  2877 ;;		line 363 in file "program.c"
  2878 ;; Parameters:    Size  Location     Type
  2879 ;;  number          4    6[BANK0 ] long 
  2880 ;;  noDigit         1   10[BANK0 ] unsigned char 
  2881 ;;  enSign          1   11[BANK0 ] _Bool 
  2882 ;;  enZero          1   12[BANK0 ] _Bool 
  2883 ;; Auto vars:     Size  Location     Type
  2884 ;;  tempN           4   35[BANK0 ] long 
  2885 ;;  tempC           1   39[BANK0 ] unsigned char 
  2886 ;;  numberChar     11   24[BANK0 ] unsigned char [11]
  2887 ;;  numberRevCha   11   13[BANK0 ] unsigned char [11]
  2888 ;;  i1              1   42[BANK0 ] unsigned char 
  2889 ;;  totalDigit      1   41[BANK0 ] unsigned char 
  2890 ;;  i2              1   40[BANK0 ] unsigned char 
  2891 ;; Return value:  Size  Location     Type
  2892 ;;                  1    wreg      void 
  2893 ;; Registers used:
  2894 ;;		wreg, fsr0l, fsr0h, fsr1l, fsr1h, status,2, status,0, pclath, cstack
  2895 ;; Tracked objects:
  2896 ;;		On entry : 0/0
  2897 ;;		On exit  : 0/0
  2898 ;;		Unchanged: 0/0
  2899 ;; Data sizes:     COMMON   BANK0   BANK1   BANK2   BANK3   BANK4   BANK5
  2900 ;;      Params:         0       7       0       0       0       0       0
  2901 ;;      Locals:         0      30       0       0       0       0       0
  2902 ;;      Temps:          4       0       0       0       0       0       0
  2903 ;;      Totals:         4      37       0       0       0       0       0
  2904 ;;Total ram usage:       41 bytes
  2905 ;; Hardware stack levels used: 1
  2906 ;; Hardware stack levels required when called: 6
  2907 ;; This function calls:
  2908 ;;		___aldiv
  2909 ;;		___bmul
  2910 ;;		_labs
  2911 ;;		_lcd_PrintChar
  2912 ;;		_lcd_PrintString
  2913 ;;		_memset
  2914 ;; This function is called by:
  2915 ;;		_rtcc_LcdDisplay
  2916 ;; This function uses a non-reentrant model
  2917 ;;
  2918                           
  2919     05E6                     _lcd_PrintDigitInt32:	
  2920                           ;psect for function _lcd_PrintDigitInt32
  2921                           
  2922     05E6                     l1467:	
  2923                           ;incstack = 0
  2924                           ; Regs used in _lcd_PrintDigitInt32: [wreg-fsr1h+status,2+status,0+pclath+cstack]
  2925                           
  2926                           
  2927                           ;program.c: 364:     uint8_t i1 = 0,
  2928     05E6  0020               	movlb	0	; select bank0
  2929     05E7  01CA               	clrf	lcd_PrintDigitInt32@i1
  2930                           
  2931                           ;program.c: 366:             totalDigit = 0;
  2932     05E8  01C9               	clrf	lcd_PrintDigitInt32@totalDigit
  2933     05E9                     l1469:
  2934                           
  2935                           ;program.c: 368:     char numberRevChar[11];;program.c: 369:     char numberChar[11];;pr
      +                          ogram.c: 371:     memset(numberRevChar, 0, 11);
  2936     05E9  3000               	movlw	0
  2937     05EA  00F0               	movwf	memset@c
  2938     05EB  00F1               	movwf	memset@c+1
  2939     05EC  300B               	movlw	11
  2940     05ED  00F2               	movwf	memset@n
  2941     05EE  3000               	movlw	0
  2942     05EF  00F3               	movwf	memset@n+1
  2943     05F0  302D               	movlw	(low (lcd_PrintDigitInt32@numberRevChar| 0))& (0+255)
  2944     05F1  3182  226C  3185   	fcall	_memset
  2945     05F4                     l1471:
  2946                           
  2947                           ;program.c: 372:     memset(numberChar, 0, 11);
  2948     05F4  3000               	movlw	0
  2949     05F5  00F0               	movwf	memset@c
  2950     05F6  00F1               	movwf	memset@c+1
  2951     05F7  300B               	movlw	11
  2952     05F8  00F2               	movwf	memset@n
  2953     05F9  3000               	movlw	0
  2954     05FA  00F3               	movwf	memset@n+1
  2955     05FB  3038               	movlw	(low (lcd_PrintDigitInt32@numberChar| 0))& (0+255)
  2956     05FC  3182  226C  3185   	fcall	_memset
  2957     05FF                     l1473:
  2958                           
  2959                           ;program.c: 374:     if(number<0) {
  2960     05FF  0020               	movlb	0	; select bank0
  2961     0600  1FA9               	btfss	lcd_PrintDigitInt32@number+3,7
  2962     0601  2E03               	goto	u781
  2963     0602  2E04               	goto	u780
  2964     0603                     u781:
  2965     0603  2E23               	goto	l1479
  2966     0604                     u780:
  2967     0604                     l1475:
  2968                           
  2969                           ;program.c: 375:         if(enSign) lcd_PrintChar('-');
  2970     0604  082B               	movf	lcd_PrintDigitInt32@enSign,w
  2971     0605  1903               	btfsc	3,2
  2972     0606  2E08               	goto	u791
  2973     0607  2E09               	goto	u790
  2974     0608                     u791:
  2975     0608  2E0D               	goto	l175
  2976     0609                     u790:
  2977     0609                     l1477:
  2978     0609  302D               	movlw	45
  2979     060A  3181  21A2  3185   	fcall	_lcd_PrintChar
  2980     060D                     l175:
  2981                           
  2982                           ;program.c: 376:         number = labs(number);
  2983     060D  0020               	movlb	0	; select bank0
  2984     060E  0829               	movf	lcd_PrintDigitInt32@number+3,w
  2985     060F  00F3               	movwf	labs@a+3
  2986     0610  0828               	movf	lcd_PrintDigitInt32@number+2,w
  2987     0611  00F2               	movwf	labs@a+2
  2988     0612  0827               	movf	lcd_PrintDigitInt32@number+1,w
  2989     0613  00F1               	movwf	labs@a+1
  2990     0614  0826               	movf	lcd_PrintDigitInt32@number,w
  2991     0615  00F0               	movwf	labs@a
  2992     0616  3182  222A  3185   	fcall	_labs
  2993     0619  0873               	movf	?_labs+3,w
  2994     061A  0020               	movlb	0	; select bank0
  2995     061B  00A9               	movwf	lcd_PrintDigitInt32@number+3
  2996     061C  0872               	movf	?_labs+2,w
  2997     061D  00A8               	movwf	lcd_PrintDigitInt32@number+2
  2998     061E  0871               	movf	?_labs+1,w
  2999     061F  00A7               	movwf	lcd_PrintDigitInt32@number+1
  3000     0620  0870               	movf	?_labs,w
  3001     0621  00A6               	movwf	lcd_PrintDigitInt32@number
  3002                           
  3003                           ;program.c: 377:     } else {
  3004     0622  2E2C               	goto	l1483
  3005     0623                     l1479:
  3006                           
  3007                           ;program.c: 378:         if(enSign) lcd_PrintChar(' ');
  3008     0623  082B               	movf	lcd_PrintDigitInt32@enSign,w
  3009     0624  1903               	btfsc	3,2
  3010     0625  2E27               	goto	u801
  3011     0626  2E28               	goto	u800
  3012     0627                     u801:
  3013     0627  2E2C               	goto	l1483
  3014     0628                     u800:
  3015     0628                     l1481:
  3016     0628  3020               	movlw	32
  3017     0629  3181  21A2  3185   	fcall	_lcd_PrintChar
  3018     062C                     l1483:
  3019                           
  3020                           ;program.c: 382:         int32_t tempN = number;
  3021     062C  0020               	movlb	0	; select bank0
  3022     062D  0829               	movf	lcd_PrintDigitInt32@number+3,w
  3023     062E  00C6               	movwf	lcd_PrintDigitInt32@tempN+3
  3024     062F  0828               	movf	lcd_PrintDigitInt32@number+2,w
  3025     0630  00C5               	movwf	lcd_PrintDigitInt32@tempN+2
  3026     0631  0827               	movf	lcd_PrintDigitInt32@number+1,w
  3027     0632  00C4               	movwf	lcd_PrintDigitInt32@tempN+1
  3028     0633  0826               	movf	lcd_PrintDigitInt32@number,w
  3029     0634  00C3               	movwf	lcd_PrintDigitInt32@tempN
  3030     0635                     l1485:
  3031                           
  3032                           ;program.c: 383:         number /= 10;
  3033     0635  3000               	movlw	0
  3034     0636  00F3               	movwf	___aldiv@divisor+3
  3035     0637  3000               	movlw	0
  3036     0638  00F2               	movwf	___aldiv@divisor+2
  3037     0639  3000               	movlw	0
  3038     063A  00F1               	movwf	___aldiv@divisor+1
  3039     063B  300A               	movlw	10
  3040     063C  00F0               	movwf	___aldiv@divisor
  3041     063D  0829               	movf	lcd_PrintDigitInt32@number+3,w
  3042     063E  00F7               	movwf	___aldiv@dividend+3
  3043     063F  0828               	movf	lcd_PrintDigitInt32@number+2,w
  3044     0640  00F6               	movwf	___aldiv@dividend+2
  3045     0641  0827               	movf	lcd_PrintDigitInt32@number+1,w
  3046     0642  00F5               	movwf	___aldiv@dividend+1
  3047     0643  0826               	movf	lcd_PrintDigitInt32@number,w
  3048     0644  00F4               	movwf	___aldiv@dividend
  3049     0645  3184  24BA  3185   	fcall	___aldiv
  3050     0648  0873               	movf	?___aldiv+3,w
  3051     0649  0020               	movlb	0	; select bank0
  3052     064A  00A9               	movwf	lcd_PrintDigitInt32@number+3
  3053     064B  0872               	movf	?___aldiv+2,w
  3054     064C  00A8               	movwf	lcd_PrintDigitInt32@number+2
  3055     064D  0871               	movf	?___aldiv+1,w
  3056     064E  00A7               	movwf	lcd_PrintDigitInt32@number+1
  3057     064F  0870               	movf	?___aldiv,w
  3058     0650  00A6               	movwf	lcd_PrintDigitInt32@number
  3059     0651                     l1487:
  3060                           
  3061                           ;program.c: 384:         char tempC = (char)(tempN -10 * number);
  3062     0651  30F6               	movlw	246
  3063     0652  00F0               	movwf	___bmul@multiplicand
  3064     0653  0826               	movf	lcd_PrintDigitInt32@number,w
  3065     0654  3182  2215  3185   	fcall	___bmul
  3066     0657  0020               	movlb	0	; select bank0
  3067     0658  0743               	addwf	lcd_PrintDigitInt32@tempN,w
  3068     0659  00C7               	movwf	lcd_PrintDigitInt32@tempC
  3069     065A                     l1489:
  3070                           
  3071                           ;program.c: 385:         numberRevChar[i1] = tempC + 48;
  3072     065A  084A               	movf	lcd_PrintDigitInt32@i1,w
  3073     065B  3E2D               	addlw	(low (lcd_PrintDigitInt32@numberRevChar| 0))& (0+255)
  3074     065C  0086               	movwf	6
  3075     065D  0187               	clrf	7
  3076     065E  0847               	movf	lcd_PrintDigitInt32@tempC,w
  3077     065F  3E30               	addlw	48
  3078     0660  0081               	movwf	1
  3079     0661                     l1491:
  3080                           
  3081                           ;program.c: 386:         i1++;
  3082     0661  3001               	movlw	1
  3083     0662  00FA               	movwf	??_lcd_PrintDigitInt32
  3084     0663  087A               	movf	??_lcd_PrintDigitInt32,w
  3085     0664  07CA               	addwf	lcd_PrintDigitInt32@i1,f
  3086     0665                     l1493:
  3087                           
  3088                           ;program.c: 387:     } while(number);
  3089     0665  0829               	movf	lcd_PrintDigitInt32@number+3,w
  3090     0666  0428               	iorwf	lcd_PrintDigitInt32@number+2,w
  3091     0667  0427               	iorwf	lcd_PrintDigitInt32@number+1,w
  3092     0668  0426               	iorwf	lcd_PrintDigitInt32@number,w
  3093     0669  1D03               	skipz
  3094     066A  2E6C               	goto	u811
  3095     066B  2E6D               	goto	u810
  3096     066C                     u811:
  3097     066C  2E2C               	goto	l1483
  3098     066D                     u810:
  3099     066D                     l1495:
  3100                           
  3101                           ;program.c: 389:     totalDigit = i1;
  3102     066D  084A               	movf	lcd_PrintDigitInt32@i1,w
  3103     066E  00C9               	movwf	lcd_PrintDigitInt32@totalDigit
  3104     066F                     l1497:
  3105                           
  3106                           ;program.c: 391:     for(i1=0; i1<(noDigit-totalDigit); i1++) {
  3107     066F  01CA               	clrf	lcd_PrintDigitInt32@i1
  3108     0670  2E85               	goto	l1507
  3109     0671                     l1499:
  3110                           
  3111                           ;program.c: 392:         if(enZero) lcd_PrintChar('0');
  3112     0671  0020               	movlb	0	; select bank0
  3113     0672  082C               	movf	lcd_PrintDigitInt32@enZero,w
  3114     0673  1903               	btfsc	3,2
  3115     0674  2E76               	goto	u821
  3116     0675  2E77               	goto	u820
  3117     0676                     u821:
  3118     0676  2E7C               	goto	l1503
  3119     0677                     u820:
  3120     0677                     l1501:
  3121     0677  3030               	movlw	48
  3122     0678  3181  21A2  3185   	fcall	_lcd_PrintChar
  3123     067B  2E80               	goto	l1505
  3124     067C                     l1503:
  3125     067C  3020               	movlw	32
  3126     067D  3181  21A2  3185   	fcall	_lcd_PrintChar
  3127     0680                     l1505:
  3128                           
  3129                           ;program.c: 394:     }
  3130     0680  3001               	movlw	1
  3131     0681  00FA               	movwf	??_lcd_PrintDigitInt32
  3132     0682  087A               	movf	??_lcd_PrintDigitInt32,w
  3133     0683  0020               	movlb	0	; select bank0
  3134     0684  07CA               	addwf	lcd_PrintDigitInt32@i1,f
  3135     0685                     l1507:
  3136     0685  082A               	movf	lcd_PrintDigitInt32@noDigit,w
  3137     0686  00FA               	movwf	??_lcd_PrintDigitInt32
  3138     0687  01FB               	clrf	??_lcd_PrintDigitInt32+1
  3139     0688  087B               	movf	??_lcd_PrintDigitInt32+1,w
  3140     0689  00FD               	movwf	??_lcd_PrintDigitInt32+3
  3141     068A  0849               	movf	lcd_PrintDigitInt32@totalDigit,w
  3142     068B  027A               	subwf	??_lcd_PrintDigitInt32,w
  3143     068C  00FC               	movwf	??_lcd_PrintDigitInt32+2
  3144     068D  1C03               	skipc
  3145     068E  03FD               	decf	??_lcd_PrintDigitInt32+3,f
  3146     068F  087D               	movf	??_lcd_PrintDigitInt32+3,w
  3147     0690  3A80               	xorlw	128
  3148     0691  3C80               	sublw	128
  3149     0692  1D03               	skipz
  3150     0693  2E96               	goto	u835
  3151     0694  087C               	movf	??_lcd_PrintDigitInt32+2,w
  3152     0695  024A               	subwf	lcd_PrintDigitInt32@i1,w
  3153     0696                     u835:
  3154     0696  1C03               	skipc
  3155     0697  2E99               	goto	u831
  3156     0698  2E9A               	goto	u830
  3157     0699                     u831:
  3158     0699  2E71               	goto	l1499
  3159     069A                     u830:
  3160     069A                     l1509:
  3161                           
  3162                           ;program.c: 396:     for(i1=totalDigit, i2=0; i1>0; i1--, i2++) {
  3163     069A  0020               	movlb	0	; select bank0
  3164     069B  0849               	movf	lcd_PrintDigitInt32@totalDigit,w
  3165     069C  00CA               	movwf	lcd_PrintDigitInt32@i1
  3166     069D                     l1511:
  3167     069D  01C8               	clrf	lcd_PrintDigitInt32@i2
  3168     069E                     l1513:
  3169     069E  084A               	movf	lcd_PrintDigitInt32@i1,w
  3170     069F  1D03               	btfss	3,2
  3171     06A0  2EA2               	goto	u841
  3172     06A1  2EA3               	goto	u840
  3173     06A2                     u841:
  3174     06A2  2EA4               	goto	l1517
  3175     06A3                     u840:
  3176     06A3  2EB6               	goto	l1525
  3177     06A4                     l1517:
  3178                           
  3179                           ;program.c: 397:         numberChar[i2] = numberRevChar[i1-1];
  3180     06A4  0848               	movf	lcd_PrintDigitInt32@i2,w
  3181     06A5  3E38               	addlw	(low (lcd_PrintDigitInt32@numberChar| 0))& (0+255)
  3182     06A6  0086               	movwf	6
  3183     06A7  0187               	clrf	7
  3184     06A8  084A               	movf	lcd_PrintDigitInt32@i1,w
  3185     06A9  3EFF               	addlw	255
  3186     06AA  3E2D               	addlw	(low (lcd_PrintDigitInt32@numberRevChar| 0))& (0+255)
  3187     06AB  0084               	movwf	4
  3188     06AC  0185               	clrf	5
  3189     06AD  0800               	movf	0,w
  3190     06AE  0081               	movwf	1
  3191     06AF                     l1519:
  3192                           
  3193                           ;program.c: 398:     }
  3194     06AF  3001               	movlw	1
  3195     06B0  02CA               	subwf	lcd_PrintDigitInt32@i1,f
  3196     06B1                     l1521:
  3197     06B1  3001               	movlw	1
  3198     06B2  00FA               	movwf	??_lcd_PrintDigitInt32
  3199     06B3  087A               	movf	??_lcd_PrintDigitInt32,w
  3200     06B4  07C8               	addwf	lcd_PrintDigitInt32@i2,f
  3201     06B5  2E9E               	goto	l1513
  3202     06B6                     l1525:
  3203                           
  3204                           ;program.c: 400:     lcd_PrintString(numberChar);
  3205     06B6  3038               	movlw	low lcd_PrintDigitInt32@numberChar
  3206     06B7  00F7               	movwf	lcd_PrintString@string
  3207     06B8  3000               	movlw	high lcd_PrintDigitInt32@numberChar
  3208     06B9  00F8               	movwf	lcd_PrintString@string+1
  3209     06BA  3182  2255  3185   	fcall	_lcd_PrintString
  3210     06BD                     l187:
  3211     06BD  0008               	return
  3212     06BE                     __end_of_lcd_PrintDigitInt32:
  3213                           
  3214                           	psect	text13
  3215     026C                     __ptext13:	
  3216 ;; *************** function _memset *****************
  3217 ;; Defined at:
  3218 ;;		line 3 in file "C:\Program Files\Microchip\xc8\v2.46\pic\sources\c99\common\memset.c"
  3219 ;; Parameters:    Size  Location     Type
  3220 ;;  dest            1    wreg     PTR void 
  3221 ;;		 -> lcd_PrintDigitInt32@numberChar(11), lcd_PrintDigitInt32@numberRevChar(11), lcd_PrintInt32@numberChar(11), lcd_Pr
      +intInt32@numberRevChar(11), 
  3222 ;;  c               2    0[COMMON] int 
  3223 ;;  n               2    2[COMMON] unsigned int 
  3224 ;; Auto vars:     Size  Location     Type
  3225 ;;  dest            1    6[COMMON] PTR void 
  3226 ;;		 -> lcd_PrintDigitInt32@numberChar(11), lcd_PrintDigitInt32@numberRevChar(11), lcd_PrintInt32@numberChar(11), lcd_Pr
      +intInt32@numberRevChar(11), 
  3227 ;;  p               1    5[COMMON] PTR unsigned char 
  3228 ;;		 -> lcd_PrintDigitInt32@numberChar(11), lcd_PrintDigitInt32@numberRevChar(11), lcd_PrintInt32@numberChar(11), lcd_Pr
      +intInt32@numberRevChar(11), 
  3229 ;; Return value:  Size  Location     Type
  3230 ;;                  1    wreg      PTR void 
  3231 ;; Registers used:
  3232 ;;		wreg, fsr1l, fsr1h, status,2, status,0
  3233 ;; Tracked objects:
  3234 ;;		On entry : 0/0
  3235 ;;		On exit  : 0/0
  3236 ;;		Unchanged: 0/0
  3237 ;; Data sizes:     COMMON   BANK0   BANK1   BANK2   BANK3   BANK4   BANK5
  3238 ;;      Params:         4       0       0       0       0       0       0
  3239 ;;      Locals:         2       0       0       0       0       0       0
  3240 ;;      Temps:          1       0       0       0       0       0       0
  3241 ;;      Totals:         7       0       0       0       0       0       0
  3242 ;;Total ram usage:        7 bytes
  3243 ;; Hardware stack levels used: 1
  3244 ;; This function calls:
  3245 ;;		Nothing
  3246 ;; This function is called by:
  3247 ;;		_lcd_PrintDigitInt32
  3248 ;;		_lcd_PrintInt32
  3249 ;; This function uses a non-reentrant model
  3250 ;;
  3251                           
  3252     026C                     _memset:	
  3253                           ;psect for function _memset
  3254                           
  3255                           
  3256                           ;incstack = 0
  3257                           ; Regs used in _memset: [wreg+fsr1l+fsr1h+status,2+status,0]
  3258                           ;memset@dest stored from wreg
  3259     026C  00F6               	movwf	memset@dest
  3260     026D                     l1373:
  3261     026D  0876               	movf	memset@dest,w
  3262     026E  00F5               	movwf	memset@p
  3263     026F  2A79               	goto	l1379
  3264     0270                     l1375:
  3265     0270  0875               	movf	memset@p,w
  3266     0271  0086               	movwf	6
  3267     0272  0187               	clrf	7
  3268     0273  0870               	movf	memset@c,w
  3269     0274  0081               	movwf	1
  3270     0275                     l1377:
  3271     0275  3001               	movlw	1
  3272     0276  00F4               	movwf	??_memset
  3273     0277  0874               	movf	??_memset,w
  3274     0278  07F5               	addwf	memset@p,f
  3275     0279                     l1379:
  3276     0279  3001               	movlw	1
  3277     027A  02F2               	subwf	memset@n,f
  3278     027B  3000               	movlw	0
  3279     027C  3BF3               	subwfb	memset@n+1,f
  3280     027D  0A72               	incf	memset@n,w
  3281     027E  1D03               	skipz
  3282     027F  2A84               	goto	u621
  3283     0280  0A73               	incf	memset@n+1,w
  3284     0281  1D03               	btfss	3,2
  3285     0282  2A84               	goto	u621
  3286     0283  2A85               	goto	u620
  3287     0284                     u621:
  3288     0284  2A70               	goto	l1375
  3289     0285                     u620:
  3290     0285                     l845:
  3291     0285  0008               	return
  3292     0286                     __end_of_memset:
  3293                           
  3294                           	psect	text14
  3295     0255                     __ptext14:	
  3296 ;; *************** function _lcd_PrintString *****************
  3297 ;; Defined at:
  3298 ;;		line 323 in file "program.c"
  3299 ;; Parameters:    Size  Location     Type
  3300 ;;  string          2    7[COMMON] PTR unsigned char 
  3301 ;;		 -> lcd_PrintDigitInt32@numberChar(11), lcd_PrintInt32@numberChar(11), STR_9(3), STR_8(3), 
  3302 ;;		 -> STR_7(3), STR_6(3), STR_5(3), STR_4(3), 
  3303 ;;		 -> STR_3(3), STR_2(3), STR_1(9), 
  3304 ;; Auto vars:     Size  Location     Type
  3305 ;;		None
  3306 ;; Return value:  Size  Location     Type
  3307 ;;                  1    wreg      void 
  3308 ;; Registers used:
  3309 ;;		wreg, fsr0l, fsr0h, status,2, status,0, pclath, cstack
  3310 ;; Tracked objects:
  3311 ;;		On entry : 0/0
  3312 ;;		On exit  : 0/0
  3313 ;;		Unchanged: 0/0
  3314 ;; Data sizes:     COMMON   BANK0   BANK1   BANK2   BANK3   BANK4   BANK5
  3315 ;;      Params:         2       0       0       0       0       0       0
  3316 ;;      Locals:         0       0       0       0       0       0       0
  3317 ;;      Temps:          1       0       0       0       0       0       0
  3318 ;;      Totals:         3       0       0       0       0       0       0
  3319 ;;Total ram usage:        3 bytes
  3320 ;; Hardware stack levels used: 1
  3321 ;; Hardware stack levels required when called: 5
  3322 ;; This function calls:
  3323 ;;		_lcd_PrintChar
  3324 ;; This function is called by:
  3325 ;;		_rtcc_LcdDisplay
  3326 ;;		_lcd_PrintDigitInt32
  3327 ;;		_lcd_PrintInt32
  3328 ;; This function uses a non-reentrant model
  3329 ;;
  3330                           
  3331     0255                     _lcd_PrintString:	
  3332                           ;psect for function _lcd_PrintString
  3333                           
  3334     0255                     l1361:	
  3335                           ;incstack = 0
  3336                           ; Regs used in _lcd_PrintString: [wreg-fsr0h+status,2+status,0+pclath+cstack]
  3337                           
  3338                           
  3339                           ;program.c: 324:     while(*string!=0) {
  3340     0255  2A62               	goto	l1367
  3341     0256                     l1363:
  3342                           
  3343                           ;program.c: 325:         lcd_PrintChar(*string);
  3344     0256  0877               	movf	lcd_PrintString@string,w
  3345     0257  0084               	movwf	4
  3346     0258  0878               	movf	lcd_PrintString@string+1,w
  3347     0259  0085               	movwf	5
  3348     025A  0800               	movf	0,w	;code access
  3349     025B  3181  21A2  3182   	fcall	_lcd_PrintChar
  3350     025E                     l1365:
  3351                           
  3352                           ;program.c: 326:         string++;
  3353     025E  3001               	movlw	1
  3354     025F  07F7               	addwf	lcd_PrintString@string,f
  3355     0260  3000               	movlw	0
  3356     0261  3DF8               	addwfc	lcd_PrintString@string+1,f
  3357     0262                     l1367:
  3358                           
  3359                           ;program.c: 324:     while(*string!=0) {
  3360     0262  0877               	movf	lcd_PrintString@string,w
  3361     0263  0084               	movwf	4
  3362     0264  0878               	movf	lcd_PrintString@string+1,w
  3363     0265  0085               	movwf	5
  3364     0266  0012               	moviw fsr0++
  3365     0267  1D03               	btfss	3,2
  3366     0268  2A6A               	goto	u611
  3367     0269  2A6B               	goto	u610
  3368     026A                     u611:
  3369     026A  2A56               	goto	l1363
  3370     026B                     u610:
  3371     026B                     l163:
  3372     026B  0008               	return
  3373     026C                     __end_of_lcd_PrintString:
  3374                           
  3375                           	psect	text15
  3376     01A2                     __ptext15:	
  3377 ;; *************** function _lcd_PrintChar *****************
  3378 ;; Defined at:
  3379 ;;		line 316 in file "program.c"
  3380 ;; Parameters:    Size  Location     Type
  3381 ;;  character       1    wreg     unsigned char 
  3382 ;; Auto vars:     Size  Location     Type
  3383 ;;  character       1    6[COMMON] unsigned char 
  3384 ;; Return value:  Size  Location     Type
  3385 ;;                  1    wreg      void 
  3386 ;; Registers used:
  3387 ;;		wreg, status,2, status,0, pclath, cstack
  3388 ;; Tracked objects:
  3389 ;;		On entry : 0/0
  3390 ;;		On exit  : 0/0
  3391 ;;		Unchanged: 0/0
  3392 ;; Data sizes:     COMMON   BANK0   BANK1   BANK2   BANK3   BANK4   BANK5
  3393 ;;      Params:         0       0       0       0       0       0       0
  3394 ;;      Locals:         1       0       0       0       0       0       0
  3395 ;;      Temps:          0       0       0       0       0       0       0
  3396 ;;      Totals:         1       0       0       0       0       0       0
  3397 ;;Total ram usage:        1 bytes
  3398 ;; Hardware stack levels used: 1
  3399 ;; Hardware stack levels required when called: 4
  3400 ;; This function calls:
  3401 ;;		_lcd_DelaySetupTime
  3402 ;;		_lcd_WriteData
  3403 ;; This function is called by:
  3404 ;;		_rtcc_LcdDisplay
  3405 ;;		_lcd_PrintString
  3406 ;;		_lcd_PrintDigitInt32
  3407 ;;		_lcd_PrintInt32
  3408 ;; This function uses a non-reentrant model
  3409 ;;
  3410                           
  3411     01A2                     _lcd_PrintChar:	
  3412                           ;psect for function _lcd_PrintChar
  3413                           
  3414                           
  3415                           ;incstack = 0
  3416                           ; Regs used in _lcd_PrintChar: [wreg+status,2+status,0+pclath+cstack]
  3417                           ;lcd_PrintChar@character stored from wreg
  3418     01A2  00F6               	movwf	lcd_PrintChar@character
  3419     01A3                     l1349:
  3420                           
  3421                           ;program.c: 317:     LATBbits.LATB5 = 1;
  3422     01A3  0022               	movlb	2	; select bank2
  3423     01A4  168D               	bsf	13,5	;volatile
  3424     01A5                     l1351:
  3425                           
  3426                           ;program.c: 318:     lcd_DelaySetupTime();
  3427     01A5  3181  217A  3181   	fcall	_lcd_DelaySetupTime
  3428                           
  3429                           ;program.c: 320:     lcd_WriteData(character);
  3430     01A8  0876               	movf	lcd_PrintChar@character,w
  3431     01A9  3184  2438  3181   	fcall	_lcd_WriteData
  3432     01AC                     l157:
  3433     01AC  0008               	return
  3434     01AD                     __end_of_lcd_PrintChar:
  3435                           
  3436                           	psect	text16
  3437     022A                     __ptext16:	
  3438 ;; *************** function _labs *****************
  3439 ;; Defined at:
  3440 ;;		line 1 in file "C:\Program Files\Microchip\xc8\v2.46\pic\sources\c99\common\labs.c"
  3441 ;; Parameters:    Size  Location     Type
  3442 ;;  a               4    0[COMMON] long 
  3443 ;; Auto vars:     Size  Location     Type
  3444 ;;		None
  3445 ;; Return value:  Size  Location     Type
  3446 ;;                  4    0[COMMON] long 
  3447 ;; Registers used:
  3448 ;;		wreg, status,2, status,0
  3449 ;; Tracked objects:
  3450 ;;		On entry : 0/0
  3451 ;;		On exit  : 0/0
  3452 ;;		Unchanged: 0/0
  3453 ;; Data sizes:     COMMON   BANK0   BANK1   BANK2   BANK3   BANK4   BANK5
  3454 ;;      Params:         4       0       0       0       0       0       0
  3455 ;;      Locals:         0       0       0       0       0       0       0
  3456 ;;      Temps:          0       0       0       0       0       0       0
  3457 ;;      Totals:         4       0       0       0       0       0       0
  3458 ;;Total ram usage:        4 bytes
  3459 ;; Hardware stack levels used: 1
  3460 ;; This function calls:
  3461 ;;		Nothing
  3462 ;; This function is called by:
  3463 ;;		_lcd_PrintDigitInt32
  3464 ;;		_lcd_PrintInt32
  3465 ;; This function uses a non-reentrant model
  3466 ;;
  3467                           
  3468     022A                     _labs:	
  3469                           ;psect for function _labs
  3470                           
  3471     022A                     l1381:	
  3472                           ;incstack = 0
  3473                           ; Regs used in _labs: [wreg+status,2+status,0]
  3474                           
  3475     022A  1BF3               	btfsc	labs@a+3,7
  3476     022B  2A2D               	goto	u631
  3477     022C  2A2E               	goto	u630
  3478     022D                     u631:
  3479     022D  2A2F               	goto	l1385
  3480     022E                     u630:
  3481     022E                     l1383:
  3482     022E  2A3E               	goto	l839
  3483     022F                     l1385:
  3484     022F  0970               	comf	labs@a,w
  3485     0230  00F0               	movwf	?_labs
  3486     0231  0971               	comf	labs@a+1,w
  3487     0232  00F1               	movwf	?_labs+1
  3488     0233  0972               	comf	labs@a+2,w
  3489     0234  00F2               	movwf	?_labs+2
  3490     0235  0973               	comf	labs@a+3,w
  3491     0236  00F3               	movwf	?_labs+3
  3492     0237  0AF0               	incf	?_labs,f
  3493     0238  1903               	skipnz
  3494     0239  0AF1               	incf	?_labs+1,f
  3495     023A  1903               	skipnz
  3496     023B  0AF2               	incf	?_labs+2,f
  3497     023C  1903               	skipnz
  3498     023D  0AF3               	incf	?_labs+3,f
  3499     023E                     l839:
  3500     023E  0008               	return
  3501     023F                     __end_of_labs:
  3502                           
  3503                           	psect	text17
  3504     0215                     __ptext17:	
  3505 ;; *************** function ___bmul *****************
  3506 ;; Defined at:
  3507 ;;		line 4 in file "C:\Program Files\Microchip\xc8\v2.46\pic\sources\c99\common\Umul8.c"
  3508 ;; Parameters:    Size  Location     Type
  3509 ;;  multiplier      1    wreg     unsigned char 
  3510 ;;  multiplicand    1    0[COMMON] unsigned char 
  3511 ;; Auto vars:     Size  Location     Type
  3512 ;;  multiplier      1    3[COMMON] unsigned char 
  3513 ;;  product         1    2[COMMON] unsigned char 
  3514 ;; Return value:  Size  Location     Type
  3515 ;;                  1    wreg      unsigned char 
  3516 ;; Registers used:
  3517 ;;		wreg, status,2, status,0
  3518 ;; Tracked objects:
  3519 ;;		On entry : 0/0
  3520 ;;		On exit  : 0/0
  3521 ;;		Unchanged: 0/0
  3522 ;; Data sizes:     COMMON   BANK0   BANK1   BANK2   BANK3   BANK4   BANK5
  3523 ;;      Params:         1       0       0       0       0       0       0
  3524 ;;      Locals:         2       0       0       0       0       0       0
  3525 ;;      Temps:          1       0       0       0       0       0       0
  3526 ;;      Totals:         4       0       0       0       0       0       0
  3527 ;;Total ram usage:        4 bytes
  3528 ;; Hardware stack levels used: 1
  3529 ;; This function calls:
  3530 ;;		Nothing
  3531 ;; This function is called by:
  3532 ;;		_rtcc_ConvertBcdToDec
  3533 ;;		_lcd_PrintDigitInt32
  3534 ;;		_rtcc_ConvertDecToBcd
  3535 ;;		_lcd_PrintInt32
  3536 ;; This function uses a non-reentrant model
  3537 ;;
  3538                           
  3539     0215                     ___bmul:	
  3540                           ;psect for function ___bmul
  3541                           
  3542                           
  3543                           ;incstack = 0
  3544                           ; Regs used in ___bmul: [wreg+status,2+status,0]
  3545                           ;___bmul@multiplier stored from wreg
  3546     0215  00F3               	movwf	___bmul@multiplier
  3547     0216                     l1393:
  3548     0216  01F2               	clrf	___bmul@product
  3549     0217                     l1395:
  3550     0217  1C73               	btfss	___bmul@multiplier,0
  3551     0218  2A1A               	goto	u651
  3552     0219  2A1B               	goto	u650
  3553     021A                     u651:
  3554     021A  2A1F               	goto	l1399
  3555     021B                     u650:
  3556     021B                     l1397:
  3557     021B  0870               	movf	___bmul@multiplicand,w
  3558     021C  00F1               	movwf	??___bmul
  3559     021D  0871               	movf	??___bmul,w
  3560     021E  07F2               	addwf	___bmul@product,f
  3561     021F                     l1399:
  3562     021F  1003               	clrc
  3563     0220  0DF0               	rlf	___bmul@multiplicand,f
  3564     0221                     l1401:
  3565     0221  1003               	clrc
  3566     0222  0CF3               	rrf	___bmul@multiplier,f
  3567     0223  0873               	movf	___bmul@multiplier,w
  3568     0224  1D03               	btfss	3,2
  3569     0225  2A27               	goto	u661
  3570     0226  2A28               	goto	u660
  3571     0227                     u661:
  3572     0227  2A17               	goto	l1395
  3573     0228                     u660:
  3574     0228                     l1403:
  3575     0228  0872               	movf	___bmul@product,w
  3576     0229                     l402:
  3577     0229  0008               	return
  3578     022A                     __end_of___bmul:
  3579                           
  3580                           	psect	text18
  3581     04BA                     __ptext18:	
  3582 ;; *************** function ___aldiv *****************
  3583 ;; Defined at:
  3584 ;;		line 5 in file "C:\Program Files\Microchip\xc8\v2.46\pic\sources\c99\common\aldiv.c"
  3585 ;; Parameters:    Size  Location     Type
  3586 ;;  divisor         4    0[COMMON] long 
  3587 ;;  dividend        4    4[COMMON] long 
  3588 ;; Auto vars:     Size  Location     Type
  3589 ;;  quotient        4    2[BANK0 ] long 
  3590 ;;  sign            1    1[BANK0 ] unsigned char 
  3591 ;;  counter         1    0[BANK0 ] unsigned char 
  3592 ;; Return value:  Size  Location     Type
  3593 ;;                  4    0[COMMON] long 
  3594 ;; Registers used:
  3595 ;;		wreg, status,2, status,0
  3596 ;; Tracked objects:
  3597 ;;		On entry : 0/0
  3598 ;;		On exit  : 0/0
  3599 ;;		Unchanged: 0/0
  3600 ;; Data sizes:     COMMON   BANK0   BANK1   BANK2   BANK3   BANK4   BANK5
  3601 ;;      Params:         8       0       0       0       0       0       0
  3602 ;;      Locals:         0       6       0       0       0       0       0
  3603 ;;      Temps:          1       0       0       0       0       0       0
  3604 ;;      Totals:         9       6       0       0       0       0       0
  3605 ;;Total ram usage:       15 bytes
  3606 ;; Hardware stack levels used: 1
  3607 ;; This function calls:
  3608 ;;		Nothing
  3609 ;; This function is called by:
  3610 ;;		_lcd_PrintDigitInt32
  3611 ;;		_lcd_PrintInt32
  3612 ;; This function uses a non-reentrant model
  3613 ;;
  3614                           
  3615     04BA                     ___aldiv:	
  3616                           ;psect for function ___aldiv
  3617                           
  3618     04BA                     l1407:	
  3619                           ;incstack = 0
  3620                           ; Regs used in ___aldiv: [wreg+status,2+status,0]
  3621                           
  3622     04BA  0020               	movlb	0	; select bank0
  3623     04BB  01A1               	clrf	___aldiv@sign
  3624     04BC                     l1409:
  3625     04BC  1FF3               	btfss	___aldiv@divisor+3,7
  3626     04BD  2CBF               	goto	u671
  3627     04BE  2CC0               	goto	u670
  3628     04BF                     u671:
  3629     04BF  2CCD               	goto	l441
  3630     04C0                     u670:
  3631     04C0                     l1411:
  3632     04C0  09F0               	comf	___aldiv@divisor,f
  3633     04C1  09F1               	comf	___aldiv@divisor+1,f
  3634     04C2  09F2               	comf	___aldiv@divisor+2,f
  3635     04C3  09F3               	comf	___aldiv@divisor+3,f
  3636     04C4  0AF0               	incf	___aldiv@divisor,f
  3637     04C5  1903               	skipnz
  3638     04C6  0AF1               	incf	___aldiv@divisor+1,f
  3639     04C7  1903               	skipnz
  3640     04C8  0AF2               	incf	___aldiv@divisor+2,f
  3641     04C9  1903               	skipnz
  3642     04CA  0AF3               	incf	___aldiv@divisor+3,f
  3643     04CB  01A1               	clrf	___aldiv@sign
  3644     04CC  0AA1               	incf	___aldiv@sign,f
  3645     04CD                     l441:
  3646     04CD  1FF7               	btfss	___aldiv@dividend+3,7
  3647     04CE  2CD0               	goto	u681
  3648     04CF  2CD1               	goto	u680
  3649     04D0                     u681:
  3650     04D0  2CE0               	goto	l1417
  3651     04D1                     u680:
  3652     04D1                     l1413:
  3653     04D1  09F4               	comf	___aldiv@dividend,f
  3654     04D2  09F5               	comf	___aldiv@dividend+1,f
  3655     04D3  09F6               	comf	___aldiv@dividend+2,f
  3656     04D4  09F7               	comf	___aldiv@dividend+3,f
  3657     04D5  0AF4               	incf	___aldiv@dividend,f
  3658     04D6  1903               	skipnz
  3659     04D7  0AF5               	incf	___aldiv@dividend+1,f
  3660     04D8  1903               	skipnz
  3661     04D9  0AF6               	incf	___aldiv@dividend+2,f
  3662     04DA  1903               	skipnz
  3663     04DB  0AF7               	incf	___aldiv@dividend+3,f
  3664     04DC                     l1415:
  3665     04DC  3001               	movlw	1
  3666     04DD  00F8               	movwf	??___aldiv
  3667     04DE  0878               	movf	??___aldiv,w
  3668     04DF  06A1               	xorwf	___aldiv@sign,f
  3669     04E0                     l1417:
  3670     04E0  3000               	movlw	0
  3671     04E1  00A5               	movwf	___aldiv@quotient+3
  3672     04E2  3000               	movlw	0
  3673     04E3  00A4               	movwf	___aldiv@quotient+2
  3674     04E4  3000               	movlw	0
  3675     04E5  00A3               	movwf	___aldiv@quotient+1
  3676     04E6  3000               	movlw	0
  3677     04E7  00A2               	movwf	___aldiv@quotient
  3678     04E8                     l1419:
  3679     04E8  0873               	movf	___aldiv@divisor+3,w
  3680     04E9  0472               	iorwf	___aldiv@divisor+2,w
  3681     04EA  0471               	iorwf	___aldiv@divisor+1,w
  3682     04EB  0470               	iorwf	___aldiv@divisor,w
  3683     04EC  1903               	skipnz
  3684     04ED  2CEF               	goto	u691
  3685     04EE  2CF0               	goto	u690
  3686     04EF                     u691:
  3687     04EF  2D31               	goto	l1439
  3688     04F0                     u690:
  3689     04F0                     l1421:
  3690     04F0  01A0               	clrf	___aldiv@counter
  3691     04F1  0AA0               	incf	___aldiv@counter,f
  3692     04F2  2CFE               	goto	l1425
  3693     04F3                     l1423:
  3694     04F3  3001               	movlw	1
  3695     04F4                     u705:
  3696     04F4  35F0               	lslf	___aldiv@divisor,f
  3697     04F5  0DF1               	rlf	___aldiv@divisor+1,f
  3698     04F6  0DF2               	rlf	___aldiv@divisor+2,f
  3699     04F7  0DF3               	rlf	___aldiv@divisor+3,f
  3700     04F8  0B89               	decfsz	9,f
  3701     04F9  2CF4               	goto	u705
  3702     04FA  3001               	movlw	1
  3703     04FB  00F8               	movwf	??___aldiv
  3704     04FC  0878               	movf	??___aldiv,w
  3705     04FD  07A0               	addwf	___aldiv@counter,f
  3706     04FE                     l1425:
  3707     04FE  1FF3               	btfss	___aldiv@divisor+3,7
  3708     04FF  2D01               	goto	u711
  3709     0500  2D02               	goto	u710
  3710     0501                     u711:
  3711     0501  2CF3               	goto	l1423
  3712     0502                     u710:
  3713     0502                     l1427:
  3714     0502  3001               	movlw	1
  3715     0503                     u725:
  3716     0503  35A2               	lslf	___aldiv@quotient,f
  3717     0504  0DA3               	rlf	___aldiv@quotient+1,f
  3718     0505  0DA4               	rlf	___aldiv@quotient+2,f
  3719     0506  0DA5               	rlf	___aldiv@quotient+3,f
  3720     0507  0B89               	decfsz	9,f
  3721     0508  2D03               	goto	u725
  3722     0509                     l1429:
  3723     0509  0873               	movf	___aldiv@divisor+3,w
  3724     050A  0277               	subwf	___aldiv@dividend+3,w
  3725     050B  1D03               	skipz
  3726     050C  2D17               	goto	u735
  3727     050D  0872               	movf	___aldiv@divisor+2,w
  3728     050E  0276               	subwf	___aldiv@dividend+2,w
  3729     050F  1D03               	skipz
  3730     0510  2D17               	goto	u735
  3731     0511  0871               	movf	___aldiv@divisor+1,w
  3732     0512  0275               	subwf	___aldiv@dividend+1,w
  3733     0513  1D03               	skipz
  3734     0514  2D17               	goto	u735
  3735     0515  0870               	movf	___aldiv@divisor,w
  3736     0516  0274               	subwf	___aldiv@dividend,w
  3737     0517                     u735:
  3738     0517  1C03               	skipc
  3739     0518  2D1A               	goto	u731
  3740     0519  2D1B               	goto	u730
  3741     051A                     u731:
  3742     051A  2D24               	goto	l1435
  3743     051B                     u730:
  3744     051B                     l1431:
  3745     051B  0870               	movf	___aldiv@divisor,w
  3746     051C  02F4               	subwf	___aldiv@dividend,f
  3747     051D  0871               	movf	___aldiv@divisor+1,w
  3748     051E  3BF5               	subwfb	___aldiv@dividend+1,f
  3749     051F  0872               	movf	___aldiv@divisor+2,w
  3750     0520  3BF6               	subwfb	___aldiv@dividend+2,f
  3751     0521  0873               	movf	___aldiv@divisor+3,w
  3752     0522  3BF7               	subwfb	___aldiv@dividend+3,f
  3753     0523                     l1433:
  3754     0523  1422               	bsf	___aldiv@quotient,0
  3755     0524                     l1435:
  3756     0524  3001               	movlw	1
  3757     0525                     u745:
  3758     0525  36F3               	lsrf	___aldiv@divisor+3,f
  3759     0526  0CF2               	rrf	___aldiv@divisor+2,f
  3760     0527  0CF1               	rrf	___aldiv@divisor+1,f
  3761     0528  0CF0               	rrf	___aldiv@divisor,f
  3762     0529  0B89               	decfsz	9,f
  3763     052A  2D25               	goto	u745
  3764     052B                     l1437:
  3765     052B  3001               	movlw	1
  3766     052C  02A0               	subwf	___aldiv@counter,f
  3767     052D  1D03               	btfss	3,2
  3768     052E  2D30               	goto	u751
  3769     052F  2D31               	goto	u750
  3770     0530                     u751:
  3771     0530  2D02               	goto	l1427
  3772     0531                     u750:
  3773     0531                     l1439:
  3774     0531  0821               	movf	___aldiv@sign,w
  3775     0532  1903               	btfsc	3,2
  3776     0533  2D35               	goto	u761
  3777     0534  2D36               	goto	u760
  3778     0535                     u761:
  3779     0535  2D41               	goto	l1443
  3780     0536                     u760:
  3781     0536                     l1441:
  3782     0536  09A2               	comf	___aldiv@quotient,f
  3783     0537  09A3               	comf	___aldiv@quotient+1,f
  3784     0538  09A4               	comf	___aldiv@quotient+2,f
  3785     0539  09A5               	comf	___aldiv@quotient+3,f
  3786     053A  0AA2               	incf	___aldiv@quotient,f
  3787     053B  1903               	skipnz
  3788     053C  0AA3               	incf	___aldiv@quotient+1,f
  3789     053D  1903               	skipnz
  3790     053E  0AA4               	incf	___aldiv@quotient+2,f
  3791     053F  1903               	skipnz
  3792     0540  0AA5               	incf	___aldiv@quotient+3,f
  3793     0541                     l1443:
  3794     0541  0825               	movf	___aldiv@quotient+3,w
  3795     0542  00F3               	movwf	?___aldiv+3
  3796     0543  0824               	movf	___aldiv@quotient+2,w
  3797     0544  00F2               	movwf	?___aldiv+2
  3798     0545  0823               	movf	___aldiv@quotient+1,w
  3799     0546  00F1               	movwf	?___aldiv+1
  3800     0547  0822               	movf	___aldiv@quotient,w
  3801     0548  00F0               	movwf	?___aldiv
  3802     0549                     l451:
  3803     0549  0008               	return
  3804     054A                     __end_of___aldiv:
  3805                           
  3806                           	psect	text19
  3807     0286                     __ptext19:	
  3808 ;; *************** function _lcd_Goto *****************
  3809 ;; Defined at:
  3810 ;;		line 300 in file "program.c"
  3811 ;; Parameters:    Size  Location     Type
  3812 ;;  y               1    wreg     unsigned char 
  3813 ;;  x               1    7[COMMON] unsigned char 
  3814 ;; Auto vars:     Size  Location     Type
  3815 ;;  y               1    8[COMMON] unsigned char 
  3816 ;; Return value:  Size  Location     Type
  3817 ;;                  1    wreg      void 
  3818 ;; Registers used:
  3819 ;;		wreg, fsr0l, fsr0h, status,2, status,0, pclath, cstack
  3820 ;; Tracked objects:
  3821 ;;		On entry : 0/0
  3822 ;;		On exit  : 0/0
  3823 ;;		Unchanged: 0/0
  3824 ;; Data sizes:     COMMON   BANK0   BANK1   BANK2   BANK3   BANK4   BANK5
  3825 ;;      Params:         1       0       0       0       0       0       0
  3826 ;;      Locals:         1       0       0       0       0       0       0
  3827 ;;      Temps:          0       0       0       0       0       0       0
  3828 ;;      Totals:         2       0       0       0       0       0       0
  3829 ;;Total ram usage:        2 bytes
  3830 ;; Hardware stack levels used: 1
  3831 ;; Hardware stack levels required when called: 5
  3832 ;; This function calls:
  3833 ;;		_lcd_PrintCmd
  3834 ;; This function is called by:
  3835 ;;		_rtcc_LcdDisplay
  3836 ;; This function uses a non-reentrant model
  3837 ;;
  3838                           
  3839     0286                     _lcd_Goto:	
  3840                           ;psect for function _lcd_Goto
  3841                           
  3842                           
  3843                           ;incstack = 0
  3844                           ; Regs used in _lcd_Goto: [wreg-fsr0h+status,2+status,0+pclath+cstack]
  3845                           ;lcd_Goto@y stored from wreg
  3846     0286  00F8               	movwf	lcd_Goto@y
  3847     0287                     l1455:
  3848                           
  3849                           ;program.c: 301:     switch(y) {
  3850     0287  2A9A               	goto	l1465
  3851     0288                     l1457:
  3852                           
  3853                           ;program.c: 303:             lcd_PrintCmd(0x80 + x);
  3854     0288  0877               	movf	lcd_Goto@x,w
  3855     0289  3E80               	addlw	128
  3856     028A  3181  2197  3182   	fcall	_lcd_PrintCmd
  3857                           
  3858                           ;program.c: 304:             break;
  3859     028D  2AA2               	goto	l154
  3860     028E                     l1459:
  3861                           
  3862                           ;program.c: 307:             lcd_PrintCmd(0xC0 + x);
  3863     028E  0877               	movf	lcd_Goto@x,w
  3864     028F  3EC0               	addlw	192
  3865     0290  3181  2197  3182   	fcall	_lcd_PrintCmd
  3866                           
  3867                           ;program.c: 308:             break;
  3868     0293  2AA2               	goto	l154
  3869     0294                     l1461:
  3870                           
  3871                           ;program.c: 311:             lcd_PrintCmd(0x80 + x);
  3872     0294  0877               	movf	lcd_Goto@x,w
  3873     0295  3E80               	addlw	128
  3874     0296  3181  2197  3182   	fcall	_lcd_PrintCmd
  3875                           
  3876                           ;program.c: 312:             break;
  3877     0299  2AA2               	goto	l154
  3878     029A                     l1465:
  3879     029A  0878               	movf	lcd_Goto@y,w
  3880                           
  3881                           ; Switch size 1, requested type "simple"
  3882                           ; Number of cases is 2, Range of values is 0 to 1
  3883                           ; switch strategies available:
  3884                           ; Name         Instructions Cycles
  3885                           ; simple_byte            7     4 (average)
  3886                           ; direct_byte           10     6 (fixed)
  3887                           ; jumptable            260     6 (fixed)
  3888                           ;	Chosen strategy is simple_byte
  3889     029B  3A00               	xorlw	0	; case 0
  3890     029C  1903               	skipnz
  3891     029D  2A88               	goto	l1457
  3892     029E  3A01               	xorlw	1	; case 1
  3893     029F  1903               	skipnz
  3894     02A0  2A8E               	goto	l1459
  3895     02A1  2A94               	goto	l1461
  3896     02A2                     l154:
  3897     02A2  0008               	return
  3898     02A3                     __end_of_lcd_Goto:
  3899                           
  3900                           	psect	text20
  3901     030D                     __ptext20:	
  3902 ;; *************** function _lcd_Initialize *****************
  3903 ;; Defined at:
  3904 ;;		line 275 in file "program.c"
  3905 ;; Parameters:    Size  Location     Type
  3906 ;;		None
  3907 ;; Auto vars:     Size  Location     Type
  3908 ;;		None
  3909 ;; Return value:  Size  Location     Type
  3910 ;;                  1    wreg      void 
  3911 ;; Registers used:
  3912 ;;		wreg, status,2, status,0, pclath, cstack
  3913 ;; Tracked objects:
  3914 ;;		On entry : 0/0
  3915 ;;		On exit  : 0/0
  3916 ;;		Unchanged: 0/0
  3917 ;; Data sizes:     COMMON   BANK0   BANK1   BANK2   BANK3   BANK4   BANK5
  3918 ;;      Params:         0       0       0       0       0       0       0
  3919 ;;      Locals:         0       0       0       0       0       0       0
  3920 ;;      Temps:          0       0       0       0       0       0       0
  3921 ;;      Totals:         0       0       0       0       0       0       0
  3922 ;;Total ram usage:        0 bytes
  3923 ;; Hardware stack levels used: 1
  3924 ;; Hardware stack levels required when called: 5
  3925 ;; This function calls:
  3926 ;;		_delay_ms
  3927 ;;		_delay_x24o25us
  3928 ;;		_lcd_PrintCmd
  3929 ;; This function is called by:
  3930 ;;		_programInitialize
  3931 ;; This function uses a non-reentrant model
  3932 ;;
  3933                           
  3934     030D                     _lcd_Initialize:	
  3935                           ;psect for function _lcd_Initialize
  3936                           
  3937     030D                     l1601:	
  3938                           ;incstack = 0
  3939                           ; Regs used in _lcd_Initialize: [wreg+status,2+status,0+pclath+cstack]
  3940                           
  3941                           
  3942                           ;program.c: 276:     delay_ms(20);
  3943     030D  3000               	movlw	0
  3944     030E  00FA               	movwf	delay_ms@delay+3
  3945     030F  3000               	movlw	0
  3946     0310  00F9               	movwf	delay_ms@delay+2
  3947     0311  3000               	movlw	0
  3948     0312  00F8               	movwf	delay_ms@delay+1
  3949     0313  3014               	movlw	20
  3950     0314  00F7               	movwf	delay_ms@delay
  3951     0315  3182  22E0  3183   	fcall	_delay_ms
  3952                           
  3953                           ;program.c: 279:     lcd_PrintCmd(0x33);
  3954     0318  3033               	movlw	51
  3955     0319  3181  2197  3183   	fcall	_lcd_PrintCmd
  3956                           
  3957                           ;program.c: 280:     lcd_PrintCmd(0x32);
  3958     031C  3032               	movlw	50
  3959     031D  3181  2197  3183   	fcall	_lcd_PrintCmd
  3960                           
  3961                           ;program.c: 283:     lcd_PrintCmd(0x28);
  3962     0320  3028               	movlw	40
  3963     0321  3181  2197  3183   	fcall	_lcd_PrintCmd
  3964                           
  3965                           ;program.c: 284:     lcd_PrintCmd(0x02);
  3966     0324  3002               	movlw	2
  3967     0325  3181  2197  3183   	fcall	_lcd_PrintCmd
  3968                           
  3969                           ;program.c: 285:     lcd_PrintCmd(0x0C);
  3970     0328  300C               	movlw	12
  3971     0329  3181  2197  3183   	fcall	_lcd_PrintCmd
  3972                           
  3973                           ;program.c: 286:     lcd_PrintCmd(0x06);
  3974     032C  3006               	movlw	6
  3975     032D  3181  2197  3183   	fcall	_lcd_PrintCmd
  3976                           
  3977                           ;program.c: 287:     lcd_PrintCmd(0x80);
  3978     0330  3080               	movlw	128
  3979     0331  3181  2197  3183   	fcall	_lcd_PrintCmd
  3980                           
  3981                           ;program.c: 288:     lcd_PrintCmd(0x01);
  3982     0334  3001               	movlw	1
  3983     0335  3181  2197  3183   	fcall	_lcd_PrintCmd
  3984                           
  3985                           ;program.c: 290:     delay_x24o25us(65);
  3986     0338  3041               	movlw	65
  3987     0339  00F3               	movwf	delay_x24o25us@delay
  3988     033A  3000               	movlw	0
  3989     033B  00F4               	movwf	delay_x24o25us@delay+1
  3990     033C  3182  223F  3183   	fcall	_delay_x24o25us
  3991     033F                     l143:
  3992     033F  0008               	return
  3993     0340                     __end_of_lcd_Initialize:
  3994                           
  3995                           	psect	text21
  3996     0197                     __ptext21:	
  3997 ;; *************** function _lcd_PrintCmd *****************
  3998 ;; Defined at:
  3999 ;;		line 268 in file "program.c"
  4000 ;; Parameters:    Size  Location     Type
  4001 ;;  command         1    wreg     unsigned char 
  4002 ;; Auto vars:     Size  Location     Type
  4003 ;;  command         1    6[COMMON] unsigned char 
  4004 ;; Return value:  Size  Location     Type
  4005 ;;                  1    wreg      void 
  4006 ;; Registers used:
  4007 ;;		wreg, status,2, status,0, pclath, cstack
  4008 ;; Tracked objects:
  4009 ;;		On entry : 0/0
  4010 ;;		On exit  : 0/0
  4011 ;;		Unchanged: 0/0
  4012 ;; Data sizes:     COMMON   BANK0   BANK1   BANK2   BANK3   BANK4   BANK5
  4013 ;;      Params:         0       0       0       0       0       0       0
  4014 ;;      Locals:         1       0       0       0       0       0       0
  4015 ;;      Temps:          0       0       0       0       0       0       0
  4016 ;;      Totals:         1       0       0       0       0       0       0
  4017 ;;Total ram usage:        1 bytes
  4018 ;; Hardware stack levels used: 1
  4019 ;; Hardware stack levels required when called: 4
  4020 ;; This function calls:
  4021 ;;		_lcd_DelaySetupTime
  4022 ;;		_lcd_WriteData
  4023 ;; This function is called by:
  4024 ;;		_lcd_Initialize
  4025 ;;		_lcd_Goto
  4026 ;;		_lcd_ClearAll
  4027 ;; This function uses a non-reentrant model
  4028 ;;
  4029                           
  4030     0197                     _lcd_PrintCmd:	
  4031                           ;psect for function _lcd_PrintCmd
  4032                           
  4033                           
  4034                           ;incstack = 0
  4035                           ; Regs used in _lcd_PrintCmd: [wreg+status,2+status,0+pclath+cstack]
  4036                           ;lcd_PrintCmd@command stored from wreg
  4037     0197  00F6               	movwf	lcd_PrintCmd@command
  4038     0198                     l1369:
  4039                           
  4040                           ;program.c: 269:     LATBbits.LATB5 = 0;
  4041     0198  0022               	movlb	2	; select bank2
  4042     0199  128D               	bcf	13,5	;volatile
  4043     019A                     l1371:
  4044                           
  4045                           ;program.c: 270:     lcd_DelaySetupTime();
  4046     019A  3181  217A  3181   	fcall	_lcd_DelaySetupTime
  4047                           
  4048                           ;program.c: 272:     lcd_WriteData(command);
  4049     019D  0876               	movf	lcd_PrintCmd@command,w
  4050     019E  3184  2438  3181   	fcall	_lcd_WriteData
  4051     01A1                     l140:
  4052     01A1  0008               	return
  4053     01A2                     __end_of_lcd_PrintCmd:
  4054                           
  4055                           	psect	text22
  4056     0438                     __ptext22:	
  4057 ;; *************** function _lcd_WriteData *****************
  4058 ;; Defined at:
  4059 ;;		line 247 in file "program.c"
  4060 ;; Parameters:    Size  Location     Type
  4061 ;;  data            1    wreg     unsigned char 
  4062 ;; Auto vars:     Size  Location     Type
  4063 ;;  data            1    5[COMMON] unsigned char 
  4064 ;; Return value:  Size  Location     Type
  4065 ;;                  1    wreg      void 
  4066 ;; Registers used:
  4067 ;;		wreg, status,2, status,0, pclath, cstack
  4068 ;; Tracked objects:
  4069 ;;		On entry : 0/0
  4070 ;;		On exit  : 0/0
  4071 ;;		Unchanged: 0/0
  4072 ;; Data sizes:     COMMON   BANK0   BANK1   BANK2   BANK3   BANK4   BANK5
  4073 ;;      Params:         0       0       0       0       0       0       0
  4074 ;;      Locals:         1       0       0       0       0       0       0
  4075 ;;      Temps:          2       0       0       0       0       0       0
  4076 ;;      Totals:         3       0       0       0       0       0       0
  4077 ;;Total ram usage:        3 bytes
  4078 ;; Hardware stack levels used: 1
  4079 ;; Hardware stack levels required when called: 3
  4080 ;; This function calls:
  4081 ;;		_delay_x1o5us
  4082 ;;		_lcd_EPulse
  4083 ;; This function is called by:
  4084 ;;		_lcd_PrintCmd
  4085 ;;		_lcd_PrintChar
  4086 ;; This function uses a non-reentrant model
  4087 ;;
  4088                           
  4089     0438                     _lcd_WriteData:	
  4090                           ;psect for function _lcd_WriteData
  4091                           
  4092                           
  4093                           ;incstack = 0
  4094                           ; Regs used in _lcd_WriteData: [wreg+status,2+status,0+pclath+cstack]
  4095                           ;lcd_WriteData@data stored from wreg
  4096     0438  00F5               	movwf	lcd_WriteData@data
  4097     0439                     l1333:
  4098                           
  4099                           ;program.c: 249:     LATCbits.LATC5 = (data >> 7) & 0x01;
  4100     0439  0875               	movf	lcd_WriteData@data,w
  4101     043A  00F3               	movwf	??_lcd_WriteData
  4102     043B  3007               	movlw	7
  4103     043C                     u545:
  4104     043C  36F3               	lsrf	??_lcd_WriteData,f
  4105     043D  0B89               	decfsz	9,f
  4106     043E  2C3C               	goto	u545
  4107     043F  0873               	movf	??_lcd_WriteData,w
  4108     0440  3901               	andlw	1
  4109     0441  00F4               	movwf	??_lcd_WriteData+1
  4110     0442  0EF4               	swapf	??_lcd_WriteData+1,f
  4111     0443  0DF4               	rlf	??_lcd_WriteData+1,f
  4112     0444  0022               	movlb	2	; select bank2
  4113     0445  080E               	movf	14,w	;volatile
  4114     0446  0674               	xorwf	??_lcd_WriteData+1,w
  4115     0447  39DF               	andlw	-33
  4116     0448  0674               	xorwf	??_lcd_WriteData+1,w
  4117     0449  008E               	movwf	14	;volatile
  4118                           
  4119                           ;program.c: 250:     LATBbits.LATB1 = (data >> 6) & 0x01;
  4120     044A  0875               	movf	lcd_WriteData@data,w
  4121     044B  00F3               	movwf	??_lcd_WriteData
  4122     044C  3006               	movlw	6
  4123     044D                     u555:
  4124     044D  36F3               	lsrf	??_lcd_WriteData,f
  4125     044E  0B89               	decfsz	9,f
  4126     044F  2C4D               	goto	u555
  4127     0450  0873               	movf	??_lcd_WriteData,w
  4128     0451  3901               	andlw	1
  4129     0452  00F4               	movwf	??_lcd_WriteData+1
  4130     0453  0DF4               	rlf	??_lcd_WriteData+1,f
  4131     0454  080D               	movf	13,w	;volatile
  4132     0455  0674               	xorwf	??_lcd_WriteData+1,w
  4133     0456  39FD               	andlw	-3
  4134     0457  0674               	xorwf	??_lcd_WriteData+1,w
  4135     0458  008D               	movwf	13	;volatile
  4136                           
  4137                           ;program.c: 251:     LATBbits.LATB2 = (data >> 5) & 0x01;
  4138     0459  0875               	movf	lcd_WriteData@data,w
  4139     045A  00F3               	movwf	??_lcd_WriteData
  4140     045B  3005               	movlw	5
  4141     045C                     u565:
  4142     045C  36F3               	lsrf	??_lcd_WriteData,f
  4143     045D  0B89               	decfsz	9,f
  4144     045E  2C5C               	goto	u565
  4145     045F  0873               	movf	??_lcd_WriteData,w
  4146     0460  3901               	andlw	1
  4147     0461  00F4               	movwf	??_lcd_WriteData+1
  4148     0462  0DF4               	rlf	??_lcd_WriteData+1,f
  4149     0463  0DF4               	rlf	??_lcd_WriteData+1,f
  4150     0464  080D               	movf	13,w	;volatile
  4151     0465  0674               	xorwf	??_lcd_WriteData+1,w
  4152     0466  39FB               	andlw	-5
  4153     0467  0674               	xorwf	??_lcd_WriteData+1,w
  4154     0468  008D               	movwf	13	;volatile
  4155                           
  4156                           ;program.c: 252:     LATBbits.LATB3 = (data >> 4) & 0x01;
  4157     0469  0875               	movf	lcd_WriteData@data,w
  4158     046A  00F3               	movwf	??_lcd_WriteData
  4159     046B  3004               	movlw	4
  4160     046C                     u575:
  4161     046C  36F3               	lsrf	??_lcd_WriteData,f
  4162     046D  0B89               	decfsz	9,f
  4163     046E  2C6C               	goto	u575
  4164     046F  0873               	movf	??_lcd_WriteData,w
  4165     0470  3901               	andlw	1
  4166     0471  00F4               	movwf	??_lcd_WriteData+1
  4167     0472  0DF4               	rlf	??_lcd_WriteData+1,f
  4168     0473  0DF4               	rlf	??_lcd_WriteData+1,f
  4169     0474  0DF4               	rlf	??_lcd_WriteData+1,f
  4170     0475  080D               	movf	13,w	;volatile
  4171     0476  0674               	xorwf	??_lcd_WriteData+1,w
  4172     0477  39F7               	andlw	-9
  4173     0478  0674               	xorwf	??_lcd_WriteData+1,w
  4174     0479  008D               	movwf	13	;volatile
  4175     047A                     l1335:
  4176                           
  4177                           ;program.c: 254:     lcd_EPulse();
  4178     047A  3181  218C  3184   	fcall	_lcd_EPulse
  4179     047D                     l1337:
  4180                           
  4181                           ;program.c: 257:     LATCbits.LATC5 = (data >> 3) & 0x01;
  4182     047D  0875               	movf	lcd_WriteData@data,w
  4183     047E  00F3               	movwf	??_lcd_WriteData
  4184     047F  3003               	movlw	3
  4185     0480                     u585:
  4186     0480  36F3               	lsrf	??_lcd_WriteData,f
  4187     0481  0B89               	decfsz	9,f
  4188     0482  2C80               	goto	u585
  4189     0483  0873               	movf	??_lcd_WriteData,w
  4190     0484  3901               	andlw	1
  4191     0485  00F4               	movwf	??_lcd_WriteData+1
  4192     0486  0EF4               	swapf	??_lcd_WriteData+1,f
  4193     0487  0DF4               	rlf	??_lcd_WriteData+1,f
  4194     0488  0022               	movlb	2	; select bank2
  4195     0489  080E               	movf	14,w	;volatile
  4196     048A  0674               	xorwf	??_lcd_WriteData+1,w
  4197     048B  39DF               	andlw	-33
  4198     048C  0674               	xorwf	??_lcd_WriteData+1,w
  4199     048D  008E               	movwf	14	;volatile
  4200     048E                     l1339:
  4201                           
  4202                           ;program.c: 258:     LATBbits.LATB1 = (data >> 2) & 0x01;
  4203     048E  0875               	movf	lcd_WriteData@data,w
  4204     048F  00F3               	movwf	??_lcd_WriteData
  4205     0490  3002               	movlw	2
  4206     0491                     u595:
  4207     0491  36F3               	lsrf	??_lcd_WriteData,f
  4208     0492  0B89               	decfsz	9,f
  4209     0493  2C91               	goto	u595
  4210     0494  0873               	movf	??_lcd_WriteData,w
  4211     0495  3901               	andlw	1
  4212     0496  00F4               	movwf	??_lcd_WriteData+1
  4213     0497  0DF4               	rlf	??_lcd_WriteData+1,f
  4214     0498  080D               	movf	13,w	;volatile
  4215     0499  0674               	xorwf	??_lcd_WriteData+1,w
  4216     049A  39FD               	andlw	-3
  4217     049B  0674               	xorwf	??_lcd_WriteData+1,w
  4218     049C  008D               	movwf	13	;volatile
  4219     049D                     l1341:
  4220                           
  4221                           ;program.c: 259:     LATBbits.LATB2 = (data >> 1) & 0x01;
  4222     049D  3675               	lsrf	lcd_WriteData@data,w
  4223     049E  3901               	andlw	1
  4224     049F  00F3               	movwf	??_lcd_WriteData
  4225     04A0  0DF3               	rlf	??_lcd_WriteData,f
  4226     04A1  0DF3               	rlf	??_lcd_WriteData,f
  4227     04A2  080D               	movf	13,w	;volatile
  4228     04A3  0673               	xorwf	??_lcd_WriteData,w
  4229     04A4  39FB               	andlw	-5
  4230     04A5  0673               	xorwf	??_lcd_WriteData,w
  4231     04A6  008D               	movwf	13	;volatile
  4232     04A7                     l1343:
  4233                           
  4234                           ;program.c: 260:     LATBbits.LATB3 = data & 0x01;
  4235     04A7  0875               	movf	lcd_WriteData@data,w
  4236     04A8  3901               	andlw	1
  4237     04A9  00F3               	movwf	??_lcd_WriteData
  4238     04AA  0DF3               	rlf	??_lcd_WriteData,f
  4239     04AB  0DF3               	rlf	??_lcd_WriteData,f
  4240     04AC  0DF3               	rlf	??_lcd_WriteData,f
  4241     04AD  080D               	movf	13,w	;volatile
  4242     04AE  0673               	xorwf	??_lcd_WriteData,w
  4243     04AF  39F7               	andlw	-9
  4244     04B0  0673               	xorwf	??_lcd_WriteData,w
  4245     04B1  008D               	movwf	13	;volatile
  4246     04B2                     l1345:
  4247                           
  4248                           ;program.c: 262:     lcd_EPulse();
  4249     04B2  3181  218C  3184   	fcall	_lcd_EPulse
  4250     04B5                     l1347:
  4251                           
  4252                           ;program.c: 264:     delay_x1o5us(30);
  4253     04B5  301E               	movlw	30
  4254     04B6  3181  21CF  3184   	fcall	_delay_x1o5us
  4255     04B9                     l137:
  4256     04B9  0008               	return
  4257     04BA                     __end_of_lcd_WriteData:
  4258                           
  4259                           	psect	text23
  4260     018C                     __ptext23:	
  4261 ;; *************** function _lcd_EPulse *****************
  4262 ;; Defined at:
  4263 ;;		line 239 in file "program.c"
  4264 ;; Parameters:    Size  Location     Type
  4265 ;;		None
  4266 ;; Auto vars:     Size  Location     Type
  4267 ;;		None
  4268 ;; Return value:  Size  Location     Type
  4269 ;;                  1    wreg      void 
  4270 ;; Registers used:
  4271 ;;		wreg, status,2, status,0, pclath, cstack
  4272 ;; Tracked objects:
  4273 ;;		On entry : 0/0
  4274 ;;		On exit  : 0/0
  4275 ;;		Unchanged: 0/0
  4276 ;; Data sizes:     COMMON   BANK0   BANK1   BANK2   BANK3   BANK4   BANK5
  4277 ;;      Params:         0       0       0       0       0       0       0
  4278 ;;      Locals:         0       0       0       0       0       0       0
  4279 ;;      Temps:          0       0       0       0       0       0       0
  4280 ;;      Totals:         0       0       0       0       0       0       0
  4281 ;;Total ram usage:        0 bytes
  4282 ;; Hardware stack levels used: 1
  4283 ;; Hardware stack levels required when called: 2
  4284 ;; This function calls:
  4285 ;;		_lcd_DelayPulse
  4286 ;; This function is called by:
  4287 ;;		_lcd_WriteData
  4288 ;; This function uses a non-reentrant model
  4289 ;;
  4290                           
  4291     018C                     _lcd_EPulse:	
  4292                           ;psect for function _lcd_EPulse
  4293                           
  4294     018C                     l1325:	
  4295                           ;incstack = 0
  4296                           ; Regs used in _lcd_EPulse: [wreg+status,2+status,0+pclath+cstack]
  4297                           
  4298                           
  4299                           ;program.c: 240:     LATBbits.LATB4 = 1;
  4300     018C  0022               	movlb	2	; select bank2
  4301     018D  160D               	bsf	13,4	;volatile
  4302     018E                     l1327:
  4303                           
  4304                           ;program.c: 241:     lcd_DelayPulse();
  4305     018E  3181  217F  3181   	fcall	_lcd_DelayPulse
  4306     0191                     l1329:
  4307                           
  4308                           ;program.c: 243:     LATBbits.LATB4 = 0;
  4309     0191  0022               	movlb	2	; select bank2
  4310     0192  120D               	bcf	13,4	;volatile
  4311                           
  4312                           ;program.c: 244:     lcd_DelayPulse();
  4313     0193  3181  217F  3181   	fcall	_lcd_DelayPulse
  4314     0196                     l134:
  4315     0196  0008               	return
  4316     0197                     __end_of_lcd_EPulse:
  4317                           
  4318                           	psect	text24
  4319     017F                     __ptext24:	
  4320 ;; *************** function _lcd_DelayPulse *****************
  4321 ;; Defined at:
  4322 ;;		line 234 in file "program.c"
  4323 ;; Parameters:    Size  Location     Type
  4324 ;;		None
  4325 ;; Auto vars:     Size  Location     Type
  4326 ;;		None
  4327 ;; Return value:  Size  Location     Type
  4328 ;;                  1    wreg      void 
  4329 ;; Registers used:
  4330 ;;		wreg, status,2, status,0, pclath, cstack
  4331 ;; Tracked objects:
  4332 ;;		On entry : 0/0
  4333 ;;		On exit  : 0/0
  4334 ;;		Unchanged: 0/0
  4335 ;; Data sizes:     COMMON   BANK0   BANK1   BANK2   BANK3   BANK4   BANK5
  4336 ;;      Params:         0       0       0       0       0       0       0
  4337 ;;      Locals:         0       0       0       0       0       0       0
  4338 ;;      Temps:          0       0       0       0       0       0       0
  4339 ;;      Totals:         0       0       0       0       0       0       0
  4340 ;;Total ram usage:        0 bytes
  4341 ;; Hardware stack levels used: 1
  4342 ;; Hardware stack levels required when called: 1
  4343 ;; This function calls:
  4344 ;;		_delay_x1o5us
  4345 ;; This function is called by:
  4346 ;;		_lcd_EPulse
  4347 ;; This function uses a non-reentrant model
  4348 ;;
  4349                           
  4350     017F                     _lcd_DelayPulse:	
  4351                           ;psect for function _lcd_DelayPulse
  4352                           
  4353     017F                     l1323:	
  4354                           ;incstack = 0
  4355                           ; Regs used in _lcd_DelayPulse: [wreg+status,2+status,0+pclath+cstack]
  4356                           
  4357                           
  4358                           ;program.c: 236:     delay_x1o5us(200);
  4359     017F  30C8               	movlw	200
  4360     0180  3181  21CF  3181   	fcall	_delay_x1o5us
  4361     0183                     l131:
  4362     0183  0008               	return
  4363     0184                     __end_of_lcd_DelayPulse:
  4364                           
  4365                           	psect	text25
  4366     017A                     __ptext25:	
  4367 ;; *************** function _lcd_DelaySetupTime *****************
  4368 ;; Defined at:
  4369 ;;		line 229 in file "program.c"
  4370 ;; Parameters:    Size  Location     Type
  4371 ;;		None
  4372 ;; Auto vars:     Size  Location     Type
  4373 ;;		None
  4374 ;; Return value:  Size  Location     Type
  4375 ;;                  1    wreg      void 
  4376 ;; Registers used:
  4377 ;;		wreg, status,2, status,0, pclath, cstack
  4378 ;; Tracked objects:
  4379 ;;		On entry : 0/0
  4380 ;;		On exit  : 0/0
  4381 ;;		Unchanged: 0/0
  4382 ;; Data sizes:     COMMON   BANK0   BANK1   BANK2   BANK3   BANK4   BANK5
  4383 ;;      Params:         0       0       0       0       0       0       0
  4384 ;;      Locals:         0       0       0       0       0       0       0
  4385 ;;      Temps:          0       0       0       0       0       0       0
  4386 ;;      Totals:         0       0       0       0       0       0       0
  4387 ;;Total ram usage:        0 bytes
  4388 ;; Hardware stack levels used: 1
  4389 ;; Hardware stack levels required when called: 1
  4390 ;; This function calls:
  4391 ;;		_delay_x1o5us
  4392 ;; This function is called by:
  4393 ;;		_lcd_PrintCmd
  4394 ;;		_lcd_PrintChar
  4395 ;; This function uses a non-reentrant model
  4396 ;;
  4397                           
  4398     017A                     _lcd_DelaySetupTime:	
  4399                           ;psect for function _lcd_DelaySetupTime
  4400                           
  4401     017A                     l1331:	
  4402                           ;incstack = 0
  4403                           ; Regs used in _lcd_DelaySetupTime: [wreg+status,2+status,0+pclath+cstack]
  4404                           
  4405                           
  4406                           ;program.c: 231:     delay_x1o5us(200);
  4407     017A  30C8               	movlw	200
  4408     017B  3181  21CF  3181   	fcall	_delay_x1o5us
  4409     017E                     l128:
  4410     017E  0008               	return
  4411     017F                     __end_of_lcd_DelaySetupTime:
  4412                           
  4413                           	psect	text26
  4414     02E0                     __ptext26:	
  4415 ;; *************** function _delay_ms *****************
  4416 ;; Defined at:
  4417 ;;		line 18 in file "program.c"
  4418 ;; Parameters:    Size  Location     Type
  4419 ;;  delay           4    7[COMMON] unsigned long 
  4420 ;; Auto vars:     Size  Location     Type
  4421 ;;  i               4    0[BANK0 ] unsigned long 
  4422 ;; Return value:  Size  Location     Type
  4423 ;;                  1    wreg      void 
  4424 ;; Registers used:
  4425 ;;		wreg, status,2, status,0, pclath, cstack
  4426 ;; Tracked objects:
  4427 ;;		On entry : 0/0
  4428 ;;		On exit  : 0/0
  4429 ;;		Unchanged: 0/0
  4430 ;; Data sizes:     COMMON   BANK0   BANK1   BANK2   BANK3   BANK4   BANK5
  4431 ;;      Params:         4       0       0       0       0       0       0
  4432 ;;      Locals:         0       4       0       0       0       0       0
  4433 ;;      Temps:          0       0       0       0       0       0       0
  4434 ;;      Totals:         4       4       0       0       0       0       0
  4435 ;;Total ram usage:        8 bytes
  4436 ;; Hardware stack levels used: 1
  4437 ;; Hardware stack levels required when called: 2
  4438 ;; This function calls:
  4439 ;;		_delay_x24o25us
  4440 ;; This function is called by:
  4441 ;;		_main
  4442 ;;		_programLoop
  4443 ;;		_lcd_Initialize
  4444 ;;		_pb_DelayDebounce
  4445 ;; This function uses a non-reentrant model
  4446 ;;
  4447                           
  4448     02E0                     _delay_ms:	
  4449                           ;psect for function _delay_ms
  4450                           
  4451     02E0                     l1447:	
  4452                           ;incstack = 0
  4453                           ; Regs used in _delay_ms: [wreg+status,2+status,0+pclath+cstack]
  4454                           
  4455                           
  4456                           ;program.c: 19:     for(uint32_t i=0; i<delay; i++) delay_x24o25us(41);
  4457     02E0  3000               	movlw	0
  4458     02E1  0020               	movlb	0	; select bank0
  4459     02E2  00A3               	movwf	delay_ms@i+3
  4460     02E3  3000               	movlw	0
  4461     02E4  00A2               	movwf	delay_ms@i+2
  4462     02E5  3000               	movlw	0
  4463     02E6  00A1               	movwf	delay_ms@i+1
  4464     02E7  3000               	movlw	0
  4465     02E8  00A0               	movwf	delay_ms@i
  4466     02E9  2AFA               	goto	l1453
  4467     02EA                     l1449:
  4468     02EA  3029               	movlw	41
  4469     02EB  00F3               	movwf	delay_x24o25us@delay
  4470     02EC  3000               	movlw	0
  4471     02ED  00F4               	movwf	delay_x24o25us@delay+1
  4472     02EE  3182  223F  3182   	fcall	_delay_x24o25us
  4473     02F1                     l1451:
  4474     02F1  3001               	movlw	1
  4475     02F2  0020               	movlb	0	; select bank0
  4476     02F3  07A0               	addwf	delay_ms@i,f
  4477     02F4  3000               	movlw	0
  4478     02F5  3DA1               	addwfc	delay_ms@i+1,f
  4479     02F6  3000               	movlw	0
  4480     02F7  3DA2               	addwfc	delay_ms@i+2,f
  4481     02F8  3000               	movlw	0
  4482     02F9  3DA3               	addwfc	delay_ms@i+3,f
  4483     02FA                     l1453:
  4484     02FA  087A               	movf	delay_ms@delay+3,w
  4485     02FB  0223               	subwf	delay_ms@i+3,w
  4486     02FC  1D03               	skipz
  4487     02FD  2B08               	goto	u775
  4488     02FE  0879               	movf	delay_ms@delay+2,w
  4489     02FF  0222               	subwf	delay_ms@i+2,w
  4490     0300  1D03               	skipz
  4491     0301  2B08               	goto	u775
  4492     0302  0878               	movf	delay_ms@delay+1,w
  4493     0303  0221               	subwf	delay_ms@i+1,w
  4494     0304  1D03               	skipz
  4495     0305  2B08               	goto	u775
  4496     0306  0877               	movf	delay_ms@delay,w
  4497     0307  0220               	subwf	delay_ms@i,w
  4498     0308                     u775:
  4499     0308  1C03               	skipc
  4500     0309  2B0B               	goto	u771
  4501     030A  2B0C               	goto	u770
  4502     030B                     u771:
  4503     030B  2AEA               	goto	l1449
  4504     030C                     u770:
  4505     030C                     l90:
  4506     030C  0008               	return
  4507     030D                     __end_of_delay_ms:
  4508                           
  4509                           	psect	text27
  4510     023F                     __ptext27:	
  4511 ;; *************** function _delay_x24o25us *****************
  4512 ;; Defined at:
  4513 ;;		line 13 in file "program.c"
  4514 ;; Parameters:    Size  Location     Type
  4515 ;;  delay           2    3[COMMON] unsigned short 
  4516 ;; Auto vars:     Size  Location     Type
  4517 ;;  i               2    5[COMMON] unsigned short 
  4518 ;; Return value:  Size  Location     Type
  4519 ;;                  1    wreg      void 
  4520 ;; Registers used:
  4521 ;;		wreg, status,2, status,0, pclath, cstack
  4522 ;; Tracked objects:
  4523 ;;		On entry : 0/0
  4524 ;;		On exit  : 0/0
  4525 ;;		Unchanged: 0/0
  4526 ;; Data sizes:     COMMON   BANK0   BANK1   BANK2   BANK3   BANK4   BANK5
  4527 ;;      Params:         2       0       0       0       0       0       0
  4528 ;;      Locals:         2       0       0       0       0       0       0
  4529 ;;      Temps:          0       0       0       0       0       0       0
  4530 ;;      Totals:         4       0       0       0       0       0       0
  4531 ;;Total ram usage:        4 bytes
  4532 ;; Hardware stack levels used: 1
  4533 ;; Hardware stack levels required when called: 1
  4534 ;; This function calls:
  4535 ;;		_delay_x1o5us
  4536 ;; This function is called by:
  4537 ;;		_delay_ms
  4538 ;;		_lcd_Initialize
  4539 ;;		_i2c_MasterStop
  4540 ;;		_lcd_ClearAll
  4541 ;; This function uses a non-reentrant model
  4542 ;;
  4543                           
  4544     023F                     _delay_x24o25us:	
  4545                           ;psect for function _delay_x24o25us
  4546                           
  4547     023F                     l1353:	
  4548                           ;incstack = 0
  4549                           ; Regs used in _delay_x24o25us: [wreg+status,2+status,0+pclath+cstack]
  4550                           
  4551                           
  4552                           ;program.c: 14:     for(uint16_t i=0; i<delay; i++) delay_x1o5us(15);
  4553     023F  01F5               	clrf	delay_x24o25us@i
  4554     0240  01F6               	clrf	delay_x24o25us@i+1
  4555     0241  2A4A               	goto	l1359
  4556     0242                     l1355:
  4557     0242  300F               	movlw	15
  4558     0243  3181  21CF  3182   	fcall	_delay_x1o5us
  4559     0246                     l1357:
  4560     0246  3001               	movlw	1
  4561     0247  07F5               	addwf	delay_x24o25us@i,f
  4562     0248  3000               	movlw	0
  4563     0249  3DF6               	addwfc	delay_x24o25us@i+1,f
  4564     024A                     l1359:
  4565     024A  0874               	movf	delay_x24o25us@delay+1,w
  4566     024B  0276               	subwf	delay_x24o25us@i+1,w
  4567     024C  1D03               	skipz
  4568     024D  2A50               	goto	u605
  4569     024E  0873               	movf	delay_x24o25us@delay,w
  4570     024F  0275               	subwf	delay_x24o25us@i,w
  4571     0250                     u605:
  4572     0250  1C03               	skipc
  4573     0251  2A53               	goto	u601
  4574     0252  2A54               	goto	u600
  4575     0253                     u601:
  4576     0253  2A42               	goto	l1355
  4577     0254                     u600:
  4578     0254                     l84:
  4579     0254  0008               	return
  4580     0255                     __end_of_delay_x24o25us:
  4581                           
  4582                           	psect	text28
  4583     0340                     __ptext28:	
  4584 ;; *************** function _i2c_Initialize *****************
  4585 ;; Defined at:
  4586 ;;		line 403 in file "program.c"
  4587 ;; Parameters:    Size  Location     Type
  4588 ;;  fosc            4    0[BANK0 ] unsigned long 
  4589 ;;  baudrate        2    4[BANK0 ] unsigned short 
  4590 ;; Auto vars:     Size  Location     Type
  4591 ;;		None
  4592 ;; Return value:  Size  Location     Type
  4593 ;;                  1    wreg      void 
  4594 ;; Registers used:
  4595 ;;		wreg, status,2, status,0, pclath, cstack
  4596 ;; Tracked objects:
  4597 ;;		On entry : 0/0
  4598 ;;		On exit  : 0/0
  4599 ;;		Unchanged: 0/0
  4600 ;; Data sizes:     COMMON   BANK0   BANK1   BANK2   BANK3   BANK4   BANK5
  4601 ;;      Params:         0       6       0       0       0       0       0
  4602 ;;      Locals:         0       0       0       0       0       0       0
  4603 ;;      Temps:          0       4       0       0       0       0       0
  4604 ;;      Totals:         0      10       0       0       0       0       0
  4605 ;;Total ram usage:       10 bytes
  4606 ;; Hardware stack levels used: 1
  4607 ;; Hardware stack levels required when called: 1
  4608 ;; This function calls:
  4609 ;;		___lldiv
  4610 ;;		_delay_x1o5us
  4611 ;; This function is called by:
  4612 ;;		_programInitialize
  4613 ;; This function uses a non-reentrant model
  4614 ;;
  4615                           
  4616     0340                     _i2c_Initialize:	
  4617                           ;psect for function _i2c_Initialize
  4618                           
  4619     0340                     l1657:	
  4620                           ;incstack = 0
  4621                           ; Regs used in _i2c_Initialize: [wreg+status,2+status,0+pclath+cstack]
  4622                           
  4623                           
  4624                           ;program.c: 404:     SSPCON1bits.SSPEN = 1;
  4625     0340  0024               	movlb	4	; select bank4
  4626     0341  1695               	bsf	21,5	;volatile
  4627     0342                     l1659:
  4628                           
  4629                           ;program.c: 405:     SSPCON1bits.SSPM = 8;
  4630     0342  0815               	movf	21,w	;volatile
  4631     0343  39F0               	andlw	-16
  4632     0344  3808               	iorlw	8
  4633     0345  0095               	movwf	21	;volatile
  4634     0346                     l1661:
  4635                           
  4636                           ;program.c: 407:     SSPSTATbits.SMP = 1;
  4637     0346  1794               	bsf	20,7	;volatile
  4638     0347                     l1663:
  4639                           
  4640                           ;program.c: 409:     SSPCON3bits.SDAHT = 0;
  4641     0347  1197               	bcf	23,3	;volatile
  4642     0348                     l1665:
  4643                           
  4644                           ;program.c: 411:     if(baudrate>2223) baudrate = 2223;
  4645     0348  3008               	movlw	8
  4646     0349  0020               	movlb	0	; select bank0
  4647     034A  0225               	subwf	i2c_Initialize@baudrate+1,w
  4648     034B  30B0               	movlw	176
  4649     034C  1903               	skipnz
  4650     034D  0224               	subwf	i2c_Initialize@baudrate,w
  4651     034E  1C03               	skipc
  4652     034F  2B51               	goto	u941
  4653     0350  2B52               	goto	u940
  4654     0351                     u941:
  4655     0351  2B57               	goto	l1669
  4656     0352                     u940:
  4657     0352                     l1667:
  4658     0352  30AF               	movlw	175
  4659     0353  00A4               	movwf	i2c_Initialize@baudrate
  4660     0354  3008               	movlw	8
  4661     0355  00A5               	movwf	i2c_Initialize@baudrate+1
  4662     0356  2B64               	goto	l1673
  4663     0357                     l1669:
  4664     0357  3004               	movlw	4
  4665     0358  0225               	subwf	i2c_Initialize@baudrate+1,w
  4666     0359  3059               	movlw	89
  4667     035A  1903               	skipnz
  4668     035B  0224               	subwf	i2c_Initialize@baudrate,w
  4669     035C  1803               	skipnc
  4670     035D  2B5F               	goto	u951
  4671     035E  2B60               	goto	u950
  4672     035F                     u951:
  4673     035F  2B64               	goto	l1673
  4674     0360                     u950:
  4675     0360                     l1671:
  4676     0360  3059               	movlw	89
  4677     0361  00A4               	movwf	i2c_Initialize@baudrate
  4678     0362  3004               	movlw	4
  4679     0363  00A5               	movwf	i2c_Initialize@baudrate+1
  4680     0364                     l1673:
  4681                           
  4682                           ;program.c: 413:     SSPADD = (uint8_t)((fosc/baudrate) / 4 - 1);
  4683     0364  0824               	movf	i2c_Initialize@baudrate,w
  4684     0365  00F0               	movwf	___lldiv@divisor
  4685     0366  0825               	movf	i2c_Initialize@baudrate+1,w
  4686     0367  00F1               	movwf	___lldiv@divisor+1
  4687     0368  01F2               	clrf	___lldiv@divisor+2
  4688     0369  01F3               	clrf	___lldiv@divisor+3
  4689     036A  0823               	movf	i2c_Initialize@fosc+3,w
  4690     036B  00F7               	movwf	___lldiv@dividend+3
  4691     036C  0822               	movf	i2c_Initialize@fosc+2,w
  4692     036D  00F6               	movwf	___lldiv@dividend+2
  4693     036E  0821               	movf	i2c_Initialize@fosc+1,w
  4694     036F  00F5               	movwf	___lldiv@dividend+1
  4695     0370  0820               	movf	i2c_Initialize@fosc,w
  4696     0371  00F4               	movwf	___lldiv@dividend
  4697     0372  3183  23DE  3183   	fcall	___lldiv
  4698     0375  0870               	movf	?___lldiv,w
  4699     0376  0020               	movlb	0	; select bank0
  4700     0377  00A6               	movwf	??_i2c_Initialize
  4701     0378  0871               	movf	?___lldiv+1,w
  4702     0379  00A7               	movwf	??_i2c_Initialize+1
  4703     037A  0872               	movf	?___lldiv+2,w
  4704     037B  00A8               	movwf	??_i2c_Initialize+2
  4705     037C  0873               	movf	?___lldiv+3,w
  4706     037D  00A9               	movwf	??_i2c_Initialize+3
  4707     037E  3002               	movlw	2
  4708     037F                     u965:
  4709     037F  36A9               	lsrf	??_i2c_Initialize+3,f
  4710     0380  0CA8               	rrf	??_i2c_Initialize+2,f
  4711     0381  0CA7               	rrf	??_i2c_Initialize+1,f
  4712     0382  0CA6               	rrf	??_i2c_Initialize,f
  4713     0383                     u960:
  4714     0383  0B89               	decfsz	9,f
  4715     0384  2B7F               	goto	u965
  4716     0385  0826               	movf	??_i2c_Initialize,w
  4717     0386  3EFF               	addlw	255
  4718     0387  0024               	movlb	4	; select bank4
  4719     0388  0092               	movwf	18	;volatile
  4720     0389                     l1675:
  4721                           
  4722                           ;program.c: 415:     delay_x1o5us(23);
  4723     0389  3017               	movlw	23
  4724     038A  3181  21CF  3183   	fcall	_delay_x1o5us
  4725     038D                     l193:
  4726     038D  0008               	return
  4727     038E                     __end_of_i2c_Initialize:
  4728                           
  4729                           	psect	text29
  4730     01CF                     __ptext29:	
  4731 ;; *************** function _delay_x1o5us *****************
  4732 ;; Defined at:
  4733 ;;		line 8 in file "program.c"
  4734 ;; Parameters:    Size  Location     Type
  4735 ;;  delay           1    wreg     unsigned char 
  4736 ;; Auto vars:     Size  Location     Type
  4737 ;;  delay           1    1[COMMON] unsigned char 
  4738 ;;  i               1    2[COMMON] unsigned char 
  4739 ;; Return value:  Size  Location     Type
  4740 ;;                  1    wreg      void 
  4741 ;; Registers used:
  4742 ;;		wreg, status,2, status,0
  4743 ;; Tracked objects:
  4744 ;;		On entry : 0/0
  4745 ;;		On exit  : 0/0
  4746 ;;		Unchanged: 0/0
  4747 ;; Data sizes:     COMMON   BANK0   BANK1   BANK2   BANK3   BANK4   BANK5
  4748 ;;      Params:         0       0       0       0       0       0       0
  4749 ;;      Locals:         2       0       0       0       0       0       0
  4750 ;;      Temps:          1       0       0       0       0       0       0
  4751 ;;      Totals:         3       0       0       0       0       0       0
  4752 ;;Total ram usage:        3 bytes
  4753 ;; Hardware stack levels used: 1
  4754 ;; This function calls:
  4755 ;;		Nothing
  4756 ;; This function is called by:
  4757 ;;		_delay_x24o25us
  4758 ;;		_lcd_DelaySetupTime
  4759 ;;		_lcd_DelayPulse
  4760 ;;		_lcd_WriteData
  4761 ;;		_i2c_Initialize
  4762 ;;		_i2c_MasterStop
  4763 ;; This function uses a non-reentrant model
  4764 ;;
  4765                           
  4766     01CF                     _delay_x1o5us:	
  4767                           ;psect for function _delay_x1o5us
  4768                           
  4769                           
  4770                           ;incstack = 0
  4771                           ; Regs used in _delay_x1o5us: [wreg+status,2+status,0]
  4772                           ;delay_x1o5us@delay stored from wreg
  4773     01CF  00F1               	movwf	delay_x1o5us@delay
  4774     01D0                     l1317:
  4775                           
  4776                           ;program.c: 9:     for(uint8_t i=0; i<delay; i++) __nop();
  4777     01D0  01F2               	clrf	delay_x1o5us@i
  4778     01D1  29D7               	goto	l1321
  4779     01D2                     l76:
  4780     01D2  0000               	nop
  4781     01D3                     l1319:
  4782     01D3  3001               	movlw	1
  4783     01D4  00F0               	movwf	??_delay_x1o5us
  4784     01D5  0870               	movf	??_delay_x1o5us,w
  4785     01D6  07F2               	addwf	delay_x1o5us@i,f
  4786     01D7                     l1321:
  4787     01D7  0871               	movf	delay_x1o5us@delay,w
  4788     01D8  0272               	subwf	delay_x1o5us@i,w
  4789     01D9  1C03               	skipc
  4790     01DA  29DC               	goto	u531
  4791     01DB  29DD               	goto	u530
  4792     01DC                     u531:
  4793     01DC  29D2               	goto	l76
  4794     01DD                     u530:
  4795     01DD                     l78:
  4796     01DD  0008               	return
  4797     01DE                     __end_of_delay_x1o5us:
  4798                           
  4799                           	psect	text30
  4800     03DE                     __ptext30:	
  4801 ;; *************** function ___lldiv *****************
  4802 ;; Defined at:
  4803 ;;		line 5 in file "C:\Program Files\Microchip\xc8\v2.46\pic\sources\c99\common\__lldiv.c"
  4804 ;; Parameters:    Size  Location     Type
  4805 ;;  divisor         4    0[COMMON] unsigned long 
  4806 ;;  dividend        4    4[COMMON] unsigned long 
  4807 ;; Auto vars:     Size  Location     Type
  4808 ;;  quotient        4    9[COMMON] unsigned long 
  4809 ;;  counter         1   13[COMMON] unsigned char 
  4810 ;; Return value:  Size  Location     Type
  4811 ;;                  4    0[COMMON] unsigned long 
  4812 ;; Registers used:
  4813 ;;		wreg, status,2, status,0
  4814 ;; Tracked objects:
  4815 ;;		On entry : 0/0
  4816 ;;		On exit  : 0/0
  4817 ;;		Unchanged: 0/0
  4818 ;; Data sizes:     COMMON   BANK0   BANK1   BANK2   BANK3   BANK4   BANK5
  4819 ;;      Params:         8       0       0       0       0       0       0
  4820 ;;      Locals:         5       0       0       0       0       0       0
  4821 ;;      Temps:          1       0       0       0       0       0       0
  4822 ;;      Totals:        14       0       0       0       0       0       0
  4823 ;;Total ram usage:       14 bytes
  4824 ;; Hardware stack levels used: 1
  4825 ;; This function calls:
  4826 ;;		Nothing
  4827 ;; This function is called by:
  4828 ;;		_i2c_Initialize
  4829 ;; This function uses a non-reentrant model
  4830 ;;
  4831                           
  4832     03DE                     ___lldiv:	
  4833                           ;psect for function ___lldiv
  4834                           
  4835     03DE                     l1577:	
  4836                           ;incstack = 0
  4837                           ; Regs used in ___lldiv: [wreg+status,2+status,0]
  4838                           
  4839     03DE  3000               	movlw	0
  4840     03DF  00FC               	movwf	___lldiv@quotient+3
  4841     03E0  3000               	movlw	0
  4842     03E1  00FB               	movwf	___lldiv@quotient+2
  4843     03E2  3000               	movlw	0
  4844     03E3  00FA               	movwf	___lldiv@quotient+1
  4845     03E4  3000               	movlw	0
  4846     03E5  00F9               	movwf	___lldiv@quotient
  4847     03E6  0873               	movf	___lldiv@divisor+3,w
  4848     03E7  0472               	iorwf	___lldiv@divisor+2,w
  4849     03E8  0471               	iorwf	___lldiv@divisor+1,w
  4850     03E9  0470               	iorwf	___lldiv@divisor,w
  4851     03EA  1903               	skipnz
  4852     03EB  2BED               	goto	u871
  4853     03EC  2BEE               	goto	u870
  4854     03ED                     u871:
  4855     03ED  2C2F               	goto	l1597
  4856     03EE                     u870:
  4857     03EE                     l1579:
  4858     03EE  01FD               	clrf	___lldiv@counter
  4859     03EF  0AFD               	incf	___lldiv@counter,f
  4860     03F0  2BFC               	goto	l1583
  4861     03F1                     l1581:
  4862     03F1  3001               	movlw	1
  4863     03F2                     u885:
  4864     03F2  35F0               	lslf	___lldiv@divisor,f
  4865     03F3  0DF1               	rlf	___lldiv@divisor+1,f
  4866     03F4  0DF2               	rlf	___lldiv@divisor+2,f
  4867     03F5  0DF3               	rlf	___lldiv@divisor+3,f
  4868     03F6  0B89               	decfsz	9,f
  4869     03F7  2BF2               	goto	u885
  4870     03F8  3001               	movlw	1
  4871     03F9  00F8               	movwf	??___lldiv
  4872     03FA  0878               	movf	??___lldiv,w
  4873     03FB  07FD               	addwf	___lldiv@counter,f
  4874     03FC                     l1583:
  4875     03FC  1FF3               	btfss	___lldiv@divisor+3,7
  4876     03FD  2BFF               	goto	u891
  4877     03FE  2C00               	goto	u890
  4878     03FF                     u891:
  4879     03FF  2BF1               	goto	l1581
  4880     0400                     u890:
  4881     0400                     l1585:
  4882     0400  3001               	movlw	1
  4883     0401                     u905:
  4884     0401  35F9               	lslf	___lldiv@quotient,f
  4885     0402  0DFA               	rlf	___lldiv@quotient+1,f
  4886     0403  0DFB               	rlf	___lldiv@quotient+2,f
  4887     0404  0DFC               	rlf	___lldiv@quotient+3,f
  4888     0405  0B89               	decfsz	9,f
  4889     0406  2C01               	goto	u905
  4890     0407                     l1587:
  4891     0407  0873               	movf	___lldiv@divisor+3,w
  4892     0408  0277               	subwf	___lldiv@dividend+3,w
  4893     0409  1D03               	skipz
  4894     040A  2C15               	goto	u915
  4895     040B  0872               	movf	___lldiv@divisor+2,w
  4896     040C  0276               	subwf	___lldiv@dividend+2,w
  4897     040D  1D03               	skipz
  4898     040E  2C15               	goto	u915
  4899     040F  0871               	movf	___lldiv@divisor+1,w
  4900     0410  0275               	subwf	___lldiv@dividend+1,w
  4901     0411  1D03               	skipz
  4902     0412  2C15               	goto	u915
  4903     0413  0870               	movf	___lldiv@divisor,w
  4904     0414  0274               	subwf	___lldiv@dividend,w
  4905     0415                     u915:
  4906     0415  1C03               	skipc
  4907     0416  2C18               	goto	u911
  4908     0417  2C19               	goto	u910
  4909     0418                     u911:
  4910     0418  2C22               	goto	l1593
  4911     0419                     u910:
  4912     0419                     l1589:
  4913     0419  0870               	movf	___lldiv@divisor,w
  4914     041A  02F4               	subwf	___lldiv@dividend,f
  4915     041B  0871               	movf	___lldiv@divisor+1,w
  4916     041C  3BF5               	subwfb	___lldiv@dividend+1,f
  4917     041D  0872               	movf	___lldiv@divisor+2,w
  4918     041E  3BF6               	subwfb	___lldiv@dividend+2,f
  4919     041F  0873               	movf	___lldiv@divisor+3,w
  4920     0420  3BF7               	subwfb	___lldiv@dividend+3,f
  4921     0421                     l1591:
  4922     0421  1479               	bsf	___lldiv@quotient,0
  4923     0422                     l1593:
  4924     0422  3001               	movlw	1
  4925     0423                     u925:
  4926     0423  36F3               	lsrf	___lldiv@divisor+3,f
  4927     0424  0CF2               	rrf	___lldiv@divisor+2,f
  4928     0425  0CF1               	rrf	___lldiv@divisor+1,f
  4929     0426  0CF0               	rrf	___lldiv@divisor,f
  4930     0427  0B89               	decfsz	9,f
  4931     0428  2C23               	goto	u925
  4932     0429                     l1595:
  4933     0429  3001               	movlw	1
  4934     042A  02FD               	subwf	___lldiv@counter,f
  4935     042B  1D03               	btfss	3,2
  4936     042C  2C2E               	goto	u931
  4937     042D  2C2F               	goto	u930
  4938     042E                     u931:
  4939     042E  2C00               	goto	l1585
  4940     042F                     u930:
  4941     042F                     l1597:
  4942     042F  087C               	movf	___lldiv@quotient+3,w
  4943     0430  00F3               	movwf	?___lldiv+3
  4944     0431  087B               	movf	___lldiv@quotient+2,w
  4945     0432  00F2               	movwf	?___lldiv+2
  4946     0433  087A               	movf	___lldiv@quotient+1,w
  4947     0434  00F1               	movwf	?___lldiv+1
  4948     0435  0879               	movf	___lldiv@quotient,w
  4949     0436  00F0               	movwf	?___lldiv
  4950     0437                     l412:
  4951     0437  0008               	return
  4952     0438                     __end_of___lldiv:
  4953     007E                     btemp	set	126	;btemp
  4954     007E                     wtemp0	set	126
  4955                           
  4956                           	psect	config
  4957                           
  4958                           ;Config register CONFIG1 @ 0x8007
  4959                           ;	Oscillator Selection
  4960                           ;	FOSC = HS, HS Oscillator, High-speed crystal/resonator connected between OSC1 and OSC2
      +                           pins
  4961                           ;	Watchdog Timer Enable
  4962                           ;	WDTE = OFF, WDT disabled
  4963                           ;	Power-up Timer Enable
  4964                           ;	PWRTE = OFF, PWRT disabled
  4965                           ;	MCLR Pin Function Select
  4966                           ;	MCLRE = ON, MCLR/VPP pin function is MCLR
  4967                           ;	Flash Program Memory Code Protection
  4968                           ;	CP = OFF, Program memory code protection is disabled
  4969                           ;	Data Memory Code Protection
  4970                           ;	CPD = OFF, Data memory code protection is disabled
  4971                           ;	Brown-out Reset Enable
  4972                           ;	BOREN = OFF, Brown-out Reset disabled
  4973                           ;	Clock Out Enable
  4974                           ;	CLKOUTEN = ON, CLKOUT function is enabled on the CLKOUT pin
  4975                           ;	Internal/External Switchover
  4976                           ;	IESO = OFF, Internal/External Switchover mode is disabled
  4977                           ;	Fail-Safe Clock Monitor Enable
  4978                           ;	FCMEN = OFF, Fail-Safe Clock Monitor is disabled
  4979     8007                     	org	32775
  4980     8007  01E2               	dw	482
  4981                           
  4982                           ;Config register CONFIG2 @ 0x8008
  4983                           ;	Flash Memory Self-Write Protection
  4984                           ;	WRT = OFF, Write protection off
  4985                           ;	Voltage Regulator Capacitor Enable bit
  4986                           ;	VCAPEN = OFF, Vcap functionality is disabled on RA6.
  4987                           ;	PLL Enable
  4988                           ;	PLLEN = ON, 4x PLL enabled
  4989                           ;	Stack Overflow/Underflow Reset Enable
  4990                           ;	STVREN = ON, Stack Overflow or Underflow will cause a Reset
  4991                           ;	Brown-out Reset Voltage Selection
  4992                           ;	BORV = LO, Brown-out Reset Voltage (Vbor), low trip point selected.
  4993                           ;	Low Power Brown-Out Reset Enable Bit
  4994                           ;	LPBOR = 0x1, unprogrammed default
  4995                           ;	In-Circuit Debugger Mode
  4996                           ;	DEBUG = OFF, In-Circuit Debugger disabled, ICSPCLK and ICSPDAT are general purpose I/O
      +                           pins
  4997                           ;	Low-Voltage Programming Enable
  4998                           ;	LVP = ON, Low-voltage programming enabled
  4999     8008                     	org	32776
  5000     8008  3FFF               	dw	16383

Data Sizes:
    Strings     33
    Constant    0
    Data        0
    BSS         1
    Persistent  32
    Stack       0

Auto Spaces:
    Space          Size  Autos    Used
    COMMON           14     14      14
    BANK0            80     71      72
    BANK1            80      0       0
    BANK2            80      0       0
    BANK3            80      0       0
    BANK4            80      0       0
    BANK5            80      0       0

Pointer List with Targets:

    lcd_PrintString@string	PTR unsigned char  size(2) Largest target is 11
		 -> lcd_PrintDigitInt32@numberChar(BANK0[11]), lcd_PrintInt32@numberChar(COMMON[11]), STR_1(CODE[9]), STR_2(CODE[3]), 
		 -> STR_3(CODE[3]), STR_4(CODE[3]), STR_5(CODE[3]), STR_6(CODE[3]), 
		 -> STR_7(CODE[3]), STR_8(CODE[3]), STR_9(CODE[3]), 

    memset@dest	PTR void  size(1) Largest target is 11
		 -> lcd_PrintDigitInt32@numberChar(BANK0[11]), lcd_PrintDigitInt32@numberRevChar(BANK0[11]), lcd_PrintInt32@numberChar(COMMON[11]), lcd_PrintInt32@numberRevChar(COMMON[11]), 

    memset@p	PTR unsigned char  size(1) Largest target is 11
		 -> lcd_PrintDigitInt32@numberChar(BANK0[11]), lcd_PrintDigitInt32@numberRevChar(BANK0[11]), lcd_PrintInt32@numberChar(COMMON[11]), lcd_PrintInt32@numberRevChar(COMMON[11]), 

    sp__memset	PTR void  size(1) Largest target is 11
		 -> lcd_PrintDigitInt32@numberChar(BANK0[11]), lcd_PrintDigitInt32@numberRevChar(BANK0[11]), lcd_PrintInt32@numberChar(COMMON[11]), lcd_PrintInt32@numberRevChar(COMMON[11]), 


Critical Paths under _main in COMMON

    _rtcc_ConvertBcdToDec->___bmul
    _i2c_MasterStop->_delay_x24o25us
    _rtcc_LcdDisplay->_lcd_PrintDigitInt32
    _lcd_PrintDigitInt32->_lcd_PrintString
    _lcd_PrintString->_lcd_PrintChar
    _lcd_PrintChar->_lcd_WriteData
    _lcd_Goto->_lcd_PrintCmd
    _lcd_Initialize->_delay_ms
    _lcd_PrintCmd->_lcd_WriteData
    _lcd_WriteData->_delay_x1o5us
    _lcd_DelayPulse->_delay_x1o5us
    _lcd_DelaySetupTime->_delay_x1o5us
    _delay_ms->_delay_x24o25us
    _delay_x24o25us->_delay_x1o5us
    _i2c_Initialize->___lldiv

Critical Paths under _main in BANK0

    _main->_programLoop
    _programLoop->_rtcc_LcdDisplay
    _programInitialize->_rtcc_LcdDisplay
    _rtcc_LcdDisplay->_lcd_PrintDigitInt32
    _lcd_PrintDigitInt32->___aldiv
    _lcd_Initialize->_delay_ms

Critical Paths under _main in BANK1

    None.

Critical Paths under _main in BANK2

    None.

Critical Paths under _main in BANK3

    None.

Critical Paths under _main in BANK4

    None.

Critical Paths under _main in BANK5

    None.

Call Graph Tables:

 ---------------------------------------------------------------------------------
 (Depth) Function   	        Calls       Base Space   Used Autos Params    Refs
 ---------------------------------------------------------------------------------
 (0) _main                                                 0     0      0   26310
                           _delay_ms
                  _programInitialize
                        _programLoop
 ---------------------------------------------------------------------------------
 (1) _programLoop                                         16    16      0   13076
                                             55 BANK0     16    16      0
                           _delay_ms
            _i2c_MasterByteReadSlave
               _rtcc_ConvertBcdToDec
                    _rtcc_LcdDisplay
 ---------------------------------------------------------------------------------
 (2) _rtcc_ConvertBcdToDec                                 3     3      0     440
                                              4 COMMON     3     3      0
                             ___bmul
 ---------------------------------------------------------------------------------
 (2) _i2c_MasterByteReadSlave                              3     2      1    1132
                                              7 COMMON     3     2      1
                     _i2c_MasterRead
                   _i2c_MasterRstart
                    _i2c_MasterStart
                     _i2c_MasterStop
                    _i2c_MasterWrite
 ---------------------------------------------------------------------------------
 (3) _i2c_MasterWrite                                      1     1      0      22
                                              0 COMMON     1     1      0
                        _i2c_BusIdle
 ---------------------------------------------------------------------------------
 (3) _i2c_MasterStop                                       0     0      0     442
                       _delay_x1o5us
                     _delay_x24o25us
                        _i2c_BusIdle
 ---------------------------------------------------------------------------------
 (3) _i2c_MasterStart                                      0     0      0       0
                        _i2c_BusIdle
 ---------------------------------------------------------------------------------
 (3) _i2c_MasterRstart                                     0     0      0       0
                        _i2c_BusIdle
 ---------------------------------------------------------------------------------
 (3) _i2c_MasterRead                                       2     2      0      46
                                              0 COMMON     2     2      0
                        _i2c_BusIdle
 ---------------------------------------------------------------------------------
 (4) _i2c_BusIdle                                          0     0      0       0
 ---------------------------------------------------------------------------------
 (1) _programInitialize                                    0     0      0   12412
                     _i2c_Initialize
                     _lcd_Initialize
                    _rtcc_LcdDisplay
 ---------------------------------------------------------------------------------
 (2) _rtcc_LcdDisplay                                     12     5      7   10256
                                             43 BANK0     12     5      7
                           _lcd_Goto
                      _lcd_PrintChar
                _lcd_PrintDigitInt32
                    _lcd_PrintString
 ---------------------------------------------------------------------------------
 (3) _lcd_PrintDigitInt32                                 41    34      7    6355
                                             10 COMMON     4     4      0
                                              6 BANK0     37    30      7
                            ___aldiv
                             ___bmul
                               _labs
                      _lcd_PrintChar
                    _lcd_PrintString
                             _memset
 ---------------------------------------------------------------------------------
 (4) _memset                                               7     3      4     836
                                              0 COMMON     7     3      4
 ---------------------------------------------------------------------------------
 (3) _lcd_PrintString                                      3     1      2    1217
                                              7 COMMON     3     1      2
                      _lcd_PrintChar
 ---------------------------------------------------------------------------------
 (4) _lcd_PrintChar                                        1     1      0     336
                                              6 COMMON     1     1      0
                 _lcd_DelaySetupTime
                      _lcd_WriteData
 ---------------------------------------------------------------------------------
 (4) _labs                                                 4     0      4     218
                                              0 COMMON     4     0      4
 ---------------------------------------------------------------------------------
 (4) ___bmul                                               4     3      1     396
                                              0 COMMON     4     3      1
 ---------------------------------------------------------------------------------
 (4) ___aldiv                                             15     7      8     604
                                              0 COMMON     9     1      8
                                              0 BANK0      6     6      0
 ---------------------------------------------------------------------------------
 (3) _lcd_Goto                                             2     1      1    1108
                                              7 COMMON     2     1      1
                       _lcd_PrintCmd
 ---------------------------------------------------------------------------------
 (2) _lcd_Initialize                                       0     0      0    1554
                           _delay_ms
                     _delay_x24o25us
                       _lcd_PrintCmd
 ---------------------------------------------------------------------------------
 (4) _lcd_PrintCmd                                         1     1      0     336
                                              6 COMMON     1     1      0
                 _lcd_DelaySetupTime
                      _lcd_WriteData
 ---------------------------------------------------------------------------------
 (5) _lcd_WriteData                                        3     3      0     268
                                              3 COMMON     3     3      0
                       _delay_x1o5us
                         _lcd_EPulse
 ---------------------------------------------------------------------------------
 (6) _lcd_EPulse                                           0     0      0      46
                     _lcd_DelayPulse
 ---------------------------------------------------------------------------------
 (7) _lcd_DelayPulse                                       0     0      0      46
                       _delay_x1o5us
 ---------------------------------------------------------------------------------
 (5) _lcd_DelaySetupTime                                   0     0      0      46
                       _delay_x1o5us
 ---------------------------------------------------------------------------------
 (2) _delay_ms                                             8     4      4     822
                                              7 COMMON     4     0      4
                                              0 BANK0      4     4      0
                     _delay_x24o25us
 ---------------------------------------------------------------------------------
 (4) _delay_x24o25us                                       4     2      2     396
                                              3 COMMON     4     2      2
                       _delay_x1o5us
 ---------------------------------------------------------------------------------
 (2) _i2c_Initialize                                      10     4      6     602
                                              0 BANK0     10     4      6
                            ___lldiv
                       _delay_x1o5us
 ---------------------------------------------------------------------------------
 (8) _delay_x1o5us                                         3     3      0      46
                                              0 COMMON     3     3      0
 ---------------------------------------------------------------------------------
 (3) ___lldiv                                             14     6      8     314
                                              0 COMMON    14     6      8
 ---------------------------------------------------------------------------------
 Estimated maximum stack depth 8
 ---------------------------------------------------------------------------------

 Call Graph Graphs:

 _main (ROOT)
   _delay_ms
     _delay_x24o25us
       _delay_x1o5us
   _programInitialize
     _i2c_Initialize
       ___lldiv
       _delay_x1o5us
     _lcd_Initialize
       _delay_ms
       _delay_x24o25us
       _lcd_PrintCmd
         _lcd_DelaySetupTime
           _delay_x1o5us
         _lcd_WriteData
           _delay_x1o5us
           _lcd_EPulse
             _lcd_DelayPulse
               _delay_x1o5us
     _rtcc_LcdDisplay
       _lcd_Goto
         _lcd_PrintCmd
       _lcd_PrintChar
         _lcd_DelaySetupTime
         _lcd_WriteData
       _lcd_PrintDigitInt32
         ___aldiv
         ___bmul
         _labs
         _lcd_PrintChar
         _lcd_PrintString
           _lcd_PrintChar
         _memset
       _lcd_PrintString
   _programLoop
     _delay_ms
     _i2c_MasterByteReadSlave
       _i2c_MasterRead
         _i2c_BusIdle
       _i2c_MasterRstart
         _i2c_BusIdle
       _i2c_MasterStart
         _i2c_BusIdle
       _i2c_MasterStop
         _delay_x1o5us
         _delay_x24o25us
         _i2c_BusIdle
       _i2c_MasterWrite
         _i2c_BusIdle
     _rtcc_ConvertBcdToDec
       ___bmul
     _rtcc_LcdDisplay

 Address spaces:
Name               Size   Autos  Total    Cost      Usage
BIGRAM             1E0      0       0       0        0.0%
EEDATA             100      0       0       0        0.0%
NULL                 0      0       0       0        0.0%
CODE                 0      0       0       0        0.0%
BITCOMMON            E      0       0       1        0.0%
BITSFR0              0      0       0       1        0.0%
SFR0                 0      0       0       1        0.0%
COMMON               E      E       E       2      100.0%
BITSFR1              0      0       0       2        0.0%
SFR1                 0      0       0       2        0.0%
BITSFR2              0      0       0       3        0.0%
SFR2                 0      0       0       3        0.0%
STACK                0      0       0       3        0.0%
BITBANK0            50      0       0       4        0.0%
BITSFR3              0      0       0       4        0.0%
SFR3                 0      0       0       4        0.0%
BANK0               50     47      48       5       90.0%
BITSFR4              0      0       0       5        0.0%
SFR4                 0      0       0       5        0.0%
BITSFR5              0      0       0       6        0.0%
SFR5                 0      0       0       6        0.0%
ABS                  0      0      56       6        0.0%
BITBANK1            50      0       0       7        0.0%
BITSFR6              0      0       0       7        0.0%
SFR6                 0      0       0       7        0.0%
BANK1               50      0       0       8        0.0%
BITSFR7              0      0       0       8        0.0%
SFR7                 0      0       0       8        0.0%
BITBANK2            50      0       0       9        0.0%
BITSFR8              0      0       0       9        0.0%
SFR8                 0      0       0       9        0.0%
BANK2               50      0       0      10        0.0%
BITSFR9              0      0       0      10        0.0%
SFR9                 0      0       0      10        0.0%
BITBANK3            50      0       0      11        0.0%
BITSFR10             0      0       0      11        0.0%
SFR10                0      0       0      11        0.0%
BANK3               50      0       0      12        0.0%
BITSFR11             0      0       0      12        0.0%
SFR11                0      0       0      12        0.0%
BITBANK4            50      0       0      13        0.0%
BITSFR12             0      0       0      13        0.0%
SFR12                0      0       0      13        0.0%
BANK4               50      0       0      14        0.0%
BITSFR13             0      0       0      14        0.0%
SFR13                0      0       0      14        0.0%
BITBANK5            50      0       0      15        0.0%
BITSFR14             0      0       0      15        0.0%
SFR14                0      0       0      15        0.0%
BANK5               50      0       0      16        0.0%
BITSFR15             0      0       0      16        0.0%
SFR15                0      0       0      16        0.0%
BITSFR16             0      0       0      17        0.0%
SFR16                0      0       0      17        0.0%
DATA                 0      0      56      17        0.0%
BITSFR17             0      0       0      18        0.0%
SFR17                0      0       0      18        0.0%
BITSFR18             0      0       0      19        0.0%
SFR18                0      0       0      19        0.0%
BITSFR19             0      0       0      20        0.0%
SFR19                0      0       0      20        0.0%
BITSFR20             0      0       0      21        0.0%
SFR20                0      0       0      21        0.0%
BITSFR21             0      0       0      22        0.0%
SFR21                0      0       0      22        0.0%
BITSFR22             0      0       0      23        0.0%
SFR22                0      0       0      23        0.0%
BITSFR23             0      0       0      24        0.0%
SFR23                0      0       0      24        0.0%
BITSFR24             0      0       0      25        0.0%
SFR24                0      0       0      25        0.0%
BITSFR25             0      0       0      26        0.0%
SFR25                0      0       0      26        0.0%
BITSFR26             0      0       0      27        0.0%
SFR26                0      0       0      27        0.0%
BITSFR27             0      0       0      28        0.0%
SFR27                0      0       0      28        0.0%
BITSFR28             0      0       0      29        0.0%
SFR28                0      0       0      29        0.0%
BITSFR29             0      0       0      30        0.0%
SFR29                0      0       0      30        0.0%
BITSFR30             0      0       0      31        0.0%
SFR30                0      0       0      31        0.0%
BITSFR31             0      0       0      32        0.0%
SFR31                0      0       0      32        0.0%


Microchip Technology PIC Macro Assembler V2.46 build 20240104201356 
Symbol Table                                                                                   Wed Oct 09 08:18:10 2024

              programLoop@bcdYear 005D                programLoop@decDate 0060               programLoop@bcdMonth 0065  
              programLoop@decHour 005F                programLoop@decYear 0062              programLoop@bcdMinute 005A  
            programLoop@bcdSecond 0066                    ??_lcd_PrintCmd 0076                    ___bmul@product 0072  
             programLoop@decMonth 0061                       _SSPSTATbits 0214                _lcd_DelaySetupTime 017A  
                              l90 030C                                l76 01D2                                l84 0254  
                              l93 03DD                                l78 01DD                   ??_lcd_PrintChar 0076  
            programLoop@decMinute 005E              programLoop@decSecond 0059                     ??_i2c_BusIdle 0070  
                             l202 01C2                               l106 0214                               l131 0183  
                             l211 01CA                               l140 01A1                               l220 0201  
                             l125 07FA                               l205 01B7                               l134 0196  
                             l214 01CE                               l143 033F                               l128 017E  
                             l208 01EE                               l137 04B9                               l217 01F5  
                             l154 02A2                               l402 0229                               l226 02C0  
                             l163 026B                               l412 0437                               l157 01AC  
                             l175 060D                               l193 038D                               l441 04CD  
                             l451 0549                               l187 06BD                               l199 018B  
                             l845 0285                               l839 023E                               u600 0254  
                             u601 0253                               u530 01DD                               u610 026B  
                             u531 01DC                               u611 026A                               u620 0285  
                             u605 0250                               u621 0284                               u710 0502  
                             u630 022E                               u711 0501                               u631 022D  
                             u800 0628                               u640 018B                               u545 043C  
                             u705 04F4                               u801 0627                               u641 018A  
                             u730 051B                               u650 021B                               u810 066D  
                             u555 044D                               u731 051A                               u651 021A  
                             u811 066C                               u660 0228                               u820 0677  
                             u565 045C                               u725 0503                               u661 0227  
                             u821 0676                               u910 0419                               u750 0531  
                             u670 04C0                               u830 069A                               u911 0418  
                             u575 046C                               u751 0530                               u735 0517  
                             u671 04BF                               u831 0699                               u760 0536  
                             u680 04D1                               u840 06A3                               u905 0401  
                             u585 0480                               u761 0535                               u745 0525  
                             u681 04D0                               u841 06A2             programLoop@decCentury 0063  
                             u930 042F                               u770 030C                               u690 04F0  
                             u850 01CE                               u931 042E                               u915 0415  
                             u771 030B                               u595 0491                               u691 04EF  
                             u835 0696                               u851 01CD                               u940 0352  
                             u780 0604                               u860 01F9                               u925 0423  
                             u941 0351                               u781 0603                               u861 01F8  
                             u870 03EE                               u950 0360                               u790 0609  
                             u871 03ED                               u951 035F                               u775 0308  
                             u791 0608                               u960 0383                               u890 0400  
                             u891 03FF                               u980 0566                               u885 03F2  
                             u965 037F                               u981 0565                               u975 020B  
                             u995 05BE               ?_lcd_DelaySetupTime 0070                               wreg 0009  
             _lcd_PrintDigitInt32 05E6                              l1321 01D7                              l1401 0221  
                            l1331 017A                              l1323 017F                              l1411 04C0  
                            l1403 0228                              l1317 01D0                              l1325 018C  
                            l1341 049D                              l1333 0439                              l1421 04F0  
                            l1413 04D1                              l1501 0677                              l1319 01D3  
                            l1327 018E                              l1343 04A7                              l1335 047A  
                            l1431 051B                              l1423 04F3                              l1415 04DC  
                            l1407 04BA                              l1351 01A5                              l1511 069D  
                            l1503 067C                              l1353 023F                              l1329 0191  
                            l1345 04B2                              l1337 047D                              l1601 030D  
                            l1441 0536                              l1433 0523                              l1425 04FE  
                            l1417 04E0                              l1409 04BC                              l1361 0255  
                            l1521 06B1                              l1513 069E                              l1505 0680  
                            l1355 0242                              l1451 02F1                              l1347 04B5  
                            l1339 048E                              l1371 019A                              l1443 0541  
                            l1435 0524                              l1427 0502                              l1419 04E8  
                            l1363 0256                              l1507 0685                              l1611 06F2  
                            l1603 06C0                              l1531 01BD                              l1357 0246  
                            l1453 02FA                              l1461 0294                              l1437 052B  
                            l1429 0509                              l1381 022A                              l1349 01A3  
                            l1365 025E                              l1373 026D                              l1525 06B6  
                            l1517 06A4                              l1509 069A                              l1621 0740  
                            l1613 0708                              l1605 06D2                              l1701 038E  
                            l1541 01AD                              l1533 01BE                              l1359 024A  
                            l1447 02E0                              l1455 0287                              l1439 0531  
                            l1383 022E                              l1367 0262                              l1375 0270  
                            l1519 06AF                              l1471 05F4                              l1631 077F  
                            l1623 0745                              l1615 070E                              l1607 06E8  
                            l1703 03BE                              l1391 0184                              l1551 01B5  
                            l1543 01B0                              l1535 01BF                              l1527 01B8  
                            l1711 0559                              l1449 02EA                              l1369 0198  
                            l1457 0288                              l1465 029A                              l1393 0216  
                            l1385 022F                              l1377 0275                              l1481 0628  
                            l1473 05FF                              l1641 07B2                              l1633 0785  
                            l1625 075B                              l1617 0724                              l1609 06EC  
                            l1705 03C1                              l1553 01B6                              l1545 01B2  
                            l1537 01C0                              l1529 01BB                              l1561 01C7  
                            l1721 05D6                              l1713 0560                              l1459 028E  
                            l1395 0217                              l1379 0279                              l1491 0661  
                            l1483 062C                              l1475 0604                              l1467 05E6  
                            l1651 07DA                              l1643 07BA                              l1635 079B  
                            l1627 075F                              l1619 072A                              l1707 03CD  
                            l1571 01FB                              l1563 01F0                              l1547 01B3  
                            l1539 01C1                              l1555 01DE                              l1723 05D9  
                            l1715 0566                              l1581 03F1                              l1661 0346  
                            l1397 021B                              l1493 0665                              l1485 0635  
                            l1477 0609                              l1469 05E9                              l1645 07C2  
                            l1637 07A2                              l1629 077B                              l1389 0184  
                            l1573 0200                              l1565 01F0                              l1549 01B4  
                            l1557 01E1                              l1717 05BB                              l1709 054A  
                            l1733 02C1                              l1591 0421                              l1583 03FC  
                            l1671 0360                              l1663 0347                              l1399 021F  
                            l1495 066D                              l1487 0651                              l1479 0623  
                            l1647 07CA                              l1639 07AA                              l1655 07E2  
                            l1567 01F3                              l1559 01C4                              l1719 05C3  
                            l1735 02D7                              l1593 0422                              l1585 0400  
                            l1577 03DE                              l1673 0364                              l1665 0348  
                            l1657 0340                              l1497 066F                              l1489 065A  
                            l1649 07D2                              l1569 01F9                              l1681 02A7  
                            l1737 02DA                              l1595 0429                              l1587 0407  
                            l1579 03EE                              l1675 0389                              l1667 0352  
                            l1659 0342                              l1499 0671                              l1691 02BC  
                            l1683 02AB                              l1589 0419                              l1597 042F  
                            l1669 0357                              l1693 02BF                              l1685 02AF  
                            l1677 02A4                              l1687 02B2                              l1679 02A4  
                            l1689 02B7                              l1697 0203                              STR_1 0800  
                            STR_2 081B                              STR_3 0815                              STR_4 081E  
                            STR_5 080F                              STR_6 0812                              STR_7 0818  
                            STR_8 0809                              STR_9 080C                   ??_lcd_WriteData 0073  
                            _labs 022A                              _main 02C1                              fsr0h 0005  
                            fsr1h 0007                              indf0 0000                              fsr0l 0004  
                            indf1 0001                              fsr1l 0006                              btemp 007E  
            ??_lcd_DelaySetupTime 0073                              start 0002         ??_i2c_MasterByteReadSlave 0078  
            ?_lcd_PrintDigitInt32 0026                 ___bmul@multiplier 0073              __end_of_delay_x1o5us 01DE  
               ??_lcd_PrintString 0079                   __end_of___aldiv 054A                             ?_labs 0070  
                           ?_main 0070                   __end_of___lldiv 0438          programLoop@bcdSecondPrev 0058  
             __end_of_i2c_BusIdle 018C                             labs@a 0070               delay_x24o25us@delay 0073  
                           status 0003                             wtemp0 007E             ??_lcd_PrintDigitInt32 007A  
                 __initialization 07FB                      __end_of_labs 023F                      __end_of_main 02E0  
                          ??_labs 0074                            ??_main 007E                   _rtcc_LcdDisplay 06BE  
        lcd_PrintDigitInt32@tempC 0047          lcd_PrintDigitInt32@tempN 0043              __end_of_lcd_PrintCmd 01A2  
                          _SSPADD 0212                            _SSPBUF 0211                  __end_of_delay_ms 030D  
               delay_x1o5us@delay 0071                  __end_of_lcd_Goto 02A3                            _RxData 0067  
              i2c_MasterRead@data 0071                            ___bmul 0215                         ??___aldiv 0078  
                       ??___lldiv 0078                  ??_i2c_MasterRead 0070                  ??_i2c_MasterStop 0077  
                ??_i2c_Initialize 0026                            _memset 026C                    _delay_x24o25us 023F  
                     _i2c_BusIdle 0184            lcd_PrintChar@character 0076           __end_of__initialization 07FD  
   lcd_PrintDigitInt32@numberChar 0038                      ?_programLoop 0070            rtcc_LcdDisplay@century 004D  
             ___bmul@multiplicand 0070                    __pcstackCOMMON 0070                i2c_Initialize@fosc 0020  
             lcd_PrintCmd@command 0076            __end_of_delay_x24o25us 0255           __end_of_rtcc_LcdDisplay 07FB  
   lcd_PrintDigitInt32@totalDigit 0049                      _delay_x1o5us 01CF                        __pbssBANK0 0067  
            rtcc_LcdDisplay@month 004C                 _programInitialize 038E                   _lcd_PrintString 0255  
                _i2c_MasterRstart 01AD                rtcc_LcdDisplay@day 0056                        __pmaintext 02C1  
              ?_programInitialize 0070            i2c_Initialize@baudrate 0024                           ?___bmul 0070  
                      _lcd_EPulse 018C                   ?_delay_x24o25us 0073                           ?_memset 0070  
             ??_programInitialize 007E             __end_of_lcd_PrintChar 01AD                         ?_delay_ms 0077  
                       ?_lcd_Goto 0077                           _SSPCON2 0216                    programLoop@day 0064  
       __end_of_programInitialize 03DE             __end_of_lcd_WriteData 04BA             lcd_PrintDigitInt32@i1 004A  
           lcd_PrintDigitInt32@i2 0048                           ___aldiv 04BA                           ___lldiv 03DE  
                    _lcd_PrintCmd 0197                           __ptext1 054A                           __ptext2 0202  
                         __ptext3 02A3                           __ptext4 01C3                           __ptext5 01DE  
                         __ptext6 01B8                           __ptext7 01AD                           __ptext8 01EF  
                         __ptext9 0184                 ??_i2c_MasterStart 0070                  ?_rtcc_LcdDisplay 004B  
               ??_i2c_MasterWrite 0070                  ___aldiv@dividend 0074                        ??_delay_ms 007B  
                      ??_lcd_Goto 0078              end_of_initialization 07FD           __end_of_lcd_PrintString 026C  
      lcd_PrintDigitInt32@noDigit 002A       __end_of_lcd_PrintDigitInt32 06BE          ?_i2c_MasterByteReadSlave 0077  
                         memset@c 0070                           memset@n 0072                           memset@p 0075  
                 ___lldiv@divisor 0070                   ___lldiv@counter 007D                  ___aldiv@quotient 0022  
                     ?_lcd_EPulse 0070                      ?_i2c_BusIdle 0070                         _TRISAbits 008C  
                       _TRISBbits 008D                         _TRISCbits 008E                    _lcd_DelayPulse 017F  
                   delay_x1o5us@i 0072                    __end_of___bmul 022A                     delay_ms@delay 0077  
             i2c_MasterWrite@byte 0070                    __end_of_memset 0286            __end_of_lcd_DelayPulse 0184  
        __end_of_i2c_MasterRstart 01B8               start_initialization 07FB   __end_of_i2c_MasterByteReadSlave 02C1  
                ?_lcd_PrintString 0077  lcd_PrintDigitInt32@numberRevChar 002D                    _lcd_Initialize 030D  
                ??_delay_x24o25us 0075                 i2c_MasterRead@ack 0070                          ??___bmul 0071  
    __end_of_rtcc_ConvertBcdToDec 0215                          ??_memset 0074                        memset@dest 0076  
                 ?_lcd_DelayPulse 0070                         ___latbits 0001                     __pcstackBANK0 0020  
           rtcc_LcdDisplay@minute 0050             rtcc_LcdDisplay@second 0051            __end_of_lcd_Initialize 0340  
             rtcc_LcdDisplay@date 004B               rtcc_LcdDisplay@hour 004F               rtcc_LcdDisplay@year 004E  
                 _i2c_MasterStart 01B8                   _i2c_MasterWrite 01C3                          ?___aldiv 0070  
                        ?___lldiv 0070                   ?_lcd_Initialize 0070                   ___aldiv@divisor 0070  
      __end_of_lcd_DelaySetupTime 017F                   ___aldiv@counter 0020                          _LATBbits 010D  
                        _LATCbits 010E                         delay_ms@i 0020                      ??_lcd_EPulse 0073  
                       lcd_Goto@x 0077                         lcd_Goto@y 0078                 lcd_WriteData@data 0075  
            _rtcc_ConvertBcdToDec 0202           __end_of_i2c_MasterStart 01C3           __end_of_i2c_MasterWrite 01CF  
              __end_of_lcd_EPulse 0197                     ??_programLoop 0057                        _APFCONbits 011D  
                      _ANSELAbits 018C                        _ANSELBbits 018D                     _lcd_PrintChar 01A2  
                  _i2c_MasterRead 01EF                 ?_i2c_MasterRstart 0070                    _i2c_MasterStop 01DE  
                  _i2c_Initialize 0340                          _delay_ms 02E0                          __ptext10 038E  
                        __ptext11 06BE                          __ptext20 030D                          __ptext12 05E6  
                        __ptext21 0197                          __ptext13 026C                          __ptext30 03DE  
                        __ptext22 0438                          __ptext14 0255                          __ptext23 018C  
                        __ptext15 01A2                          __ptext24 017F                          __ptext16 022A  
                        __ptext25 017A                          __ptext17 0215                          __ptext26 02E0  
                        __ptext18 04BA                          __ptext27 023F                          __ptext19 0286  
                        _lcd_Goto 0286                          __ptext28 0340                          __ptext29 01CF  
              ??_i2c_MasterRstart 0070             ?_rtcc_ConvertBcdToDec 0070                     ?_delay_x1o5us 0070  
                   _lcd_WriteData 0438               __end_of_programLoop 05E6                  ??_lcd_DelayPulse 0073  
          __end_of_i2c_MasterRead 0202            __end_of_i2c_MasterStop 01EF            __end_of_i2c_Initialize 038E  
                  ?_lcd_PrintChar 0070    i2c_MasterByteReadSlave@addrDev 0079    i2c_MasterByteReadSlave@addrReg 0077  
                  __pstringtext10 0000                    ??_delay_x1o5us 0070                  ?_i2c_MasterStart 0070  
                ?_i2c_MasterWrite 0070                  ___lldiv@dividend 0074                    ?_lcd_WriteData 0070  
               ??_rtcc_LcdDisplay 0052         lcd_PrintDigitInt32@enSign 002B         lcd_PrintDigitInt32@enZero 002C  
       lcd_PrintDigitInt32@number 0026           _i2c_MasterByteReadSlave 02A3       i2c_MasterByteReadSlave@data 0078  
                 delay_x24o25us@i 0075                     ?_lcd_PrintCmd 0070                     __pstringtext1 0800  
                   __pstringtext2 0809                     __pstringtext3 080C                     __pstringtext4 080F  
                   __pstringtext5 0812                     __pstringtext6 0815                     __pstringtext7 0818  
                   __pstringtext8 081B                     __pstringtext9 081E                   ?_i2c_MasterRead 0070  
                 ?_i2c_MasterStop 0070                   ?_i2c_Initialize 0020                  ___lldiv@quotient 0079  
                    ___aldiv@sign 0021            ??_rtcc_ConvertBcdToDec 0074                  ??_lcd_Initialize 007B  
                     _SSPCON1bits 0215                       _SSPCON2bits 0216                       _SSPCON3bits 0217  
         rtcc_ConvertBcdToDec@bcd 0076             lcd_PrintString@string 0077                       _programLoop 054A  
              programLoop@bcdDate 005C                programLoop@bcdHour 005B  
